
bin/quartus-x86:     file format elf32-i386


Disassembly of section .text:

00100000 <kernel_start>:
  100000:	02 b0 ad 1b 00 00    	add    0x1bad(%eax),%dh
  100006:	00 00                	add    %al,(%eax)
  100008:	fe 4f 52             	decb   0x52(%edi)
  10000b:	e4 55                	in     $0x55,%al

0010000c <__tcf_2>:
#include "include/memmgr.hpp"

size_t kernel::memory_version = 0;

vmm &kernel::vmmgr(  ) { static vmm memmgr; kernel::memory_version++; return memmgr; }
  10000c:	55                   	push   %ebp
  10000d:	89 e5                	mov    %esp,%ebp
  10000f:	83 ec 18             	sub    $0x18,%esp
  100012:	c7 04 24 20 30 11 00 	movl   $0x113020,(%esp)
  100019:	e8 dc 43 00 00       	call   1043fa <_ZN3hal3x863vmmD1Ev>
  10001e:	c9                   	leave  
  10001f:	c3                   	ret    

00100020 <_ZN6kernel5vmmgrEv>:
  100020:	55                   	push   %ebp
  100021:	89 e5                	mov    %esp,%ebp
  100023:	83 ec 18             	sub    $0x18,%esp
  100026:	b8 08 30 11 00       	mov    $0x113008,%eax
  10002b:	0f b6 00             	movzbl (%eax),%eax
  10002e:	84 c0                	test   %al,%al
  100030:	75 20                	jne    100052 <_ZN6kernel5vmmgrEv+0x32>
  100032:	c7 04 24 20 30 11 00 	movl   $0x113020,(%esp)
  100039:	e8 80 43 00 00       	call   1043be <_ZN3hal3x863vmmC1Ev>
  10003e:	b8 08 30 11 00       	mov    $0x113008,%eax
  100043:	c6 00 01             	movb   $0x1,(%eax)
  100046:	c7 04 24 0c 00 10 00 	movl   $0x10000c,(%esp)
  10004d:	e8 31 39 00 00       	call   103983 <atexit>
  100052:	a1 00 30 11 00       	mov    0x113000,%eax
  100057:	83 c0 01             	add    $0x1,%eax
  10005a:	a3 00 30 11 00       	mov    %eax,0x113000
  10005f:	b8 20 30 11 00       	mov    $0x113020,%eax
  100064:	c9                   	leave  
  100065:	c3                   	ret    

00100066 <__tcf_4>:
	  */
	class scheduler
	{
		friend cpu::cpu_state *syscall::handle( cpu::cpu_state *cpu );

		SINGLETON(scheduler)
  100066:	55                   	push   %ebp
  100067:	89 e5                	mov    %esp,%ebp
  100069:	83 ec 18             	sub    $0x18,%esp
  10006c:	c7 04 24 60 60 13 00 	movl   $0x136060,(%esp)
  100073:	e8 b2 be 00 00       	call   10bf2a <_ZN6kernel9schedulerD1Ev>
  100078:	c9                   	leave  
  100079:	c3                   	ret    

0010007a <_ZN6kernel5timer4initEhll>:
time_t timer::seconds 	= 0;
time_t timer::time 	= 0;
time_t timer::freq 	= 0;

void timer::init( uint8_t irq, time_t current, time_t freq )
{
  10007a:	55                   	push   %ebp
  10007b:	89 e5                	mov    %esp,%ebp
  10007d:	83 ec 28             	sub    $0x28,%esp
  100080:	8b 45 08             	mov    0x8(%ebp),%eax
  100083:	88 45 e4             	mov    %al,-0x1c(%ebp)
	timer::ticks 	= 0;
  100086:	c7 05 34 30 13 00 00 	movl   $0x0,0x133034
  10008d:	00 00 00 
	timer::seconds 	= 0;
  100090:	c7 05 38 30 13 00 00 	movl   $0x0,0x133038
  100097:	00 00 00 
	timer::time 	= current;
  10009a:	8b 45 0c             	mov    0xc(%ebp),%eax
  10009d:	a3 3c 30 13 00       	mov    %eax,0x13303c
	timer::freq	= freq;	
  1000a2:	8b 45 10             	mov    0x10(%ebp),%eax
  1000a5:	a3 40 30 13 00       	mov    %eax,0x133040

	pic &pic = pic::instance();
  1000aa:	e8 4d be 00 00       	call   10befc <_ZN3hal3x863pic8instanceEv>
  1000af:	89 45 f4             	mov    %eax,-0xc(%ebp)
	pic.handler(irq, timer::tick);
  1000b2:	0f b6 45 e4          	movzbl -0x1c(%ebp),%eax
  1000b6:	c7 44 24 08 e2 00 10 	movl   $0x1000e2,0x8(%esp)
  1000bd:	00 
  1000be:	89 44 24 04          	mov    %eax,0x4(%esp)
  1000c2:	8b 45 f4             	mov    -0xc(%ebp),%eax
  1000c5:	89 04 24             	mov    %eax,(%esp)
  1000c8:	e8 81 42 00 00       	call   10434e <_ZN3hal3x863pic7handlerEhPFPNS0_3cpu9cpu_stateES4_E>
	pic.enable(irq);
  1000cd:	0f b6 45 e4          	movzbl -0x1c(%ebp),%eax
  1000d1:	89 44 24 04          	mov    %eax,0x4(%esp)
  1000d5:	8b 45 f4             	mov    -0xc(%ebp),%eax
  1000d8:	89 04 24             	mov    %eax,(%esp)
  1000db:	e8 aa 41 00 00       	call   10428a <_ZN3hal3x863pic6enableEh>
}
  1000e0:	c9                   	leave  
  1000e1:	c3                   	ret    

001000e2 <_ZN6kernel5timer4tickEPN3hal3x863cpu9cpu_stateE>:

cpu::cpu_state *timer::tick( cpu::cpu_state *cpu )
{
  1000e2:	55                   	push   %ebp
  1000e3:	89 e5                	mov    %esp,%ebp
  1000e5:	83 ec 28             	sub    $0x28,%esp
	timer::ticks++;
  1000e8:	a1 34 30 13 00       	mov    0x133034,%eax
  1000ed:	83 c0 01             	add    $0x1,%eax
  1000f0:	a3 34 30 13 00       	mov    %eax,0x133034

	if(!(timer::ticks % timer::freq))
  1000f5:	a1 34 30 13 00       	mov    0x133034,%eax
  1000fa:	8b 0d 40 30 13 00    	mov    0x133040,%ecx
  100100:	99                   	cltd   
  100101:	f7 f9                	idiv   %ecx
  100103:	89 d0                	mov    %edx,%eax
  100105:	85 c0                	test   %eax,%eax
  100107:	75 24                	jne    10012d <_ZN6kernel5timer4tickEPN3hal3x863cpu9cpu_stateE+0x4b>
	{
		timer::ticks = 0;
  100109:	c7 05 34 30 13 00 00 	movl   $0x0,0x133034
  100110:	00 00 00 
		timer::seconds++;
  100113:	a1 38 30 13 00       	mov    0x133038,%eax
  100118:	83 c0 01             	add    $0x1,%eax
  10011b:	a3 38 30 13 00       	mov    %eax,0x133038
		timer::time++;
  100120:	a1 3c 30 13 00       	mov    0x13303c,%eax
  100125:	83 c0 01             	add    $0x1,%eax
  100128:	a3 3c 30 13 00       	mov    %eax,0x13303c
	}

	scheduler &scheduler = scheduler::instance();
  10012d:	e8 0b be 00 00       	call   10bf3d <_ZN6kernel9scheduler8instanceEv>
  100132:	89 45 f4             	mov    %eax,-0xc(%ebp)

	return scheduler.schedule(cpu);
  100135:	8b 45 08             	mov    0x8(%ebp),%eax
  100138:	89 44 24 04          	mov    %eax,0x4(%esp)
  10013c:	8b 45 f4             	mov    -0xc(%ebp),%eax
  10013f:	89 04 24             	mov    %eax,(%esp)
  100142:	e8 c9 11 00 00       	call   101310 <_ZN6kernel9scheduler8scheduleEPN3hal3x863cpu9cpu_stateE>
}
  100147:	c9                   	leave  
  100148:	c3                   	ret    
  100149:	90                   	nop

0010014a <_ZN6kernel6threadC1EPNS_7processEjj>:
#include "include/heap.hpp"

using kernel::thread;
using kernel::threadmgr;

thread::thread( process *proc, uintptr_t entry, size_t flags )
  10014a:	55                   	push   %ebp
  10014b:	89 e5                	mov    %esp,%ebp
  10014d:	83 ec 18             	sub    $0x18,%esp
{
	if(!proc || !entry)
  100150:	83 7d 0c 00          	cmpl   $0x0,0xc(%ebp)
  100154:	74 06                	je     10015c <_ZN6kernel6threadC1EPNS_7processEjj+0x12>
  100156:	83 7d 10 00          	cmpl   $0x0,0x10(%ebp)
  10015a:	75 05                	jne    100161 <_ZN6kernel6threadC1EPNS_7processEjj+0x17>
	{
		return;
  10015c:	e9 1f 01 00 00       	jmp    100280 <_ZN6kernel6threadC1EPNS_7processEjj+0x136>
	}

	this->id = thread::new_id();
  100161:	e8 04 c0 00 00       	call   10c16a <_ZN6kernel6thread6new_idEv>
  100166:	8b 55 08             	mov    0x8(%ebp),%edx
  100169:	89 02                	mov    %eax,(%edx)

	this->proc  = proc;
  10016b:	8b 45 08             	mov    0x8(%ebp),%eax
  10016e:	8b 55 0c             	mov    0xc(%ebp),%edx
  100171:	89 50 18             	mov    %edx,0x18(%eax)

	this->flags = flags;
  100174:	8b 45 08             	mov    0x8(%ebp),%eax
  100177:	8b 55 14             	mov    0x14(%ebp),%edx
  10017a:	89 50 08             	mov    %edx,0x8(%eax)

	this->kstack = (uintptr_t)kernel::malloc(thread::kstack_size);
  10017d:	c7 04 24 00 10 00 00 	movl   $0x1000,(%esp)
  100184:	e8 8c 1c 00 00       	call   101e15 <_ZN6kernel6mallocEj>
  100189:	89 c2                	mov    %eax,%edx
  10018b:	8b 45 08             	mov    0x8(%ebp),%eax
  10018e:	89 50 14             	mov    %edx,0x14(%eax)

	if(flags & thread::kernel)
  100191:	8b 45 14             	mov    0x14(%ebp),%eax
  100194:	83 e0 01             	and    $0x1,%eax
  100197:	85 c0                	test   %eax,%eax
  100199:	74 2c                	je     1001c7 <_ZN6kernel6threadC1EPNS_7processEjj+0x7d>
	{
		this->ustack = (*this->proc->memmgr).alloc(vmm::present | vmm::write, bytes_to_pages(thread::ustack_size));
  10019b:	8b 45 08             	mov    0x8(%ebp),%eax
  10019e:	8b 40 18             	mov    0x18(%eax),%eax
  1001a1:	8b 80 50 04 00 00    	mov    0x450(%eax),%eax
  1001a7:	c7 44 24 08 04 00 00 	movl   $0x4,0x8(%esp)
  1001ae:	00 
  1001af:	c7 44 24 04 03 00 00 	movl   $0x3,0x4(%esp)
  1001b6:	00 
  1001b7:	89 04 24             	mov    %eax,(%esp)
  1001ba:	e8 e7 44 00 00       	call   1046a6 <_ZN3hal3x863vmm5allocEjj>
  1001bf:	8b 55 08             	mov    0x8(%ebp),%edx
  1001c2:	89 42 10             	mov    %eax,0x10(%edx)
  1001c5:	eb 2a                	jmp    1001f1 <_ZN6kernel6threadC1EPNS_7processEjj+0xa7>
	}
	else
	{
		this->ustack = (*this->proc->memmgr).alloc(vmm::present | vmm::write | vmm::user, bytes_to_pages(thread::ustack_size));
  1001c7:	8b 45 08             	mov    0x8(%ebp),%eax
  1001ca:	8b 40 18             	mov    0x18(%eax),%eax
  1001cd:	8b 80 50 04 00 00    	mov    0x450(%eax),%eax
  1001d3:	c7 44 24 08 04 00 00 	movl   $0x4,0x8(%esp)
  1001da:	00 
  1001db:	c7 44 24 04 07 00 00 	movl   $0x7,0x4(%esp)
  1001e2:	00 
  1001e3:	89 04 24             	mov    %eax,(%esp)
  1001e6:	e8 bb 44 00 00       	call   1046a6 <_ZN3hal3x863vmm5allocEjj>
  1001eb:	8b 55 08             	mov    0x8(%ebp),%edx
  1001ee:	89 42 10             	mov    %eax,0x10(%edx)
	}

	this->cpu  = (cpu::cpu_state*)(this->kstack + thread::kstack_size - sizeof(cpu::cpu_state));
  1001f1:	8b 45 08             	mov    0x8(%ebp),%eax
  1001f4:	8b 40 14             	mov    0x14(%eax),%eax
  1001f7:	05 c8 0f 00 00       	add    $0xfc8,%eax
  1001fc:	89 c2                	mov    %eax,%edx
  1001fe:	8b 45 08             	mov    0x8(%ebp),%eax
  100201:	89 50 0c             	mov    %edx,0xc(%eax)

	#if defined(ARCH_X86)
	this->cpu->eip = entry;
  100204:	8b 45 08             	mov    0x8(%ebp),%eax
  100207:	8b 40 0c             	mov    0xc(%eax),%eax
  10020a:	8b 55 10             	mov    0x10(%ebp),%edx
  10020d:	89 50 24             	mov    %edx,0x24(%eax)
	this->cpu->esp = this->ustack + thread::ustack_size;
  100210:	8b 45 08             	mov    0x8(%ebp),%eax
  100213:	8b 40 0c             	mov    0xc(%eax),%eax
  100216:	8b 55 08             	mov    0x8(%ebp),%edx
  100219:	8b 52 10             	mov    0x10(%edx),%edx
  10021c:	81 c2 00 40 00 00    	add    $0x4000,%edx
  100222:	89 50 30             	mov    %edx,0x30(%eax)

	if(flags & thread::kernel)
  100225:	8b 45 14             	mov    0x14(%ebp),%eax
  100228:	83 e0 01             	and    $0x1,%eax
  10022b:	85 c0                	test   %eax,%eax
  10022d:	74 0f                	je     10023e <_ZN6kernel6threadC1EPNS_7processEjj+0xf4>
	{
		this->cpu->cs = 0x08 | 0x00;
  10022f:	8b 45 08             	mov    0x8(%ebp),%eax
  100232:	8b 40 0c             	mov    0xc(%eax),%eax
  100235:	c7 40 28 08 00 00 00 	movl   $0x8,0x28(%eax)
  10023c:	eb 1a                	jmp    100258 <_ZN6kernel6threadC1EPNS_7processEjj+0x10e>
	}
	else
	{
		this->cpu->cs = 0x18 | 0x03;
  10023e:	8b 45 08             	mov    0x8(%ebp),%eax
  100241:	8b 40 0c             	mov    0xc(%eax),%eax
  100244:	c7 40 28 1b 00 00 00 	movl   $0x1b,0x28(%eax)
		this->cpu->ss = 0x20 | 0x03;
  10024b:	8b 45 08             	mov    0x8(%ebp),%eax
  10024e:	8b 40 0c             	mov    0xc(%eax),%eax
  100251:	c7 40 34 23 00 00 00 	movl   $0x23,0x34(%eax)
	}
	
	this->cpu->eflags = 0x202;
  100258:	8b 45 08             	mov    0x8(%ebp),%eax
  10025b:	8b 40 0c             	mov    0xc(%eax),%eax
  10025e:	c7 40 2c 02 02 00 00 	movl   $0x202,0x2c(%eax)
	/*
	TODO
	*/
	#endif

	this->proc->thrds.push_back(this);
  100265:	8b 45 08             	mov    0x8(%ebp),%eax
  100268:	8b 40 18             	mov    0x18(%eax),%eax
  10026b:	8d 90 54 04 00 00    	lea    0x454(%eax),%edx
  100271:	8b 45 08             	mov    0x8(%ebp),%eax
  100274:	89 44 24 04          	mov    %eax,0x4(%esp)
  100278:	89 14 24             	mov    %edx,(%esp)
  10027b:	e8 fe be 00 00       	call   10c17e <_ZN5tools4listIN6kernel6threadEE9push_backEPS2_>
}
  100280:	c9                   	leave  
  100281:	c3                   	ret    

00100282 <_ZN6kernel6threadD1Ev>:

thread::~thread(  )
  100282:	55                   	push   %ebp
  100283:	89 e5                	mov    %esp,%ebp
  100285:	53                   	push   %ebx
  100286:	83 ec 34             	sub    $0x34,%esp
{
	for(tools::list<thread>::iterator it = this->proc->thrds.begin(); it != this->proc->thrds.end(); it++)
  100289:	8b 45 08             	mov    0x8(%ebp),%eax
  10028c:	8b 40 18             	mov    0x18(%eax),%eax
  10028f:	8d 90 54 04 00 00    	lea    0x454(%eax),%edx
  100295:	8d 45 d8             	lea    -0x28(%ebp),%eax
  100298:	89 54 24 04          	mov    %edx,0x4(%esp)
  10029c:	89 04 24             	mov    %eax,(%esp)
  10029f:	e8 88 bd 00 00       	call   10c02c <_ZN5tools4listIN6kernel6threadEE5beginEv>
  1002a4:	83 ec 04             	sub    $0x4,%esp
  1002a7:	eb 5e                	jmp    100307 <_ZN6kernel6threadD1Ev+0x85>
	{
		if(*it == this)
  1002a9:	8d 45 d8             	lea    -0x28(%ebp),%eax
  1002ac:	89 04 24             	mov    %eax,(%esp)
  1002af:	e8 c2 bd 00 00       	call   10c076 <_ZN5tools4listIN6kernel6threadEE8iteratordeEv>
  1002b4:	3b 45 08             	cmp    0x8(%ebp),%eax
  1002b7:	0f 94 c0             	sete   %al
  1002ba:	84 c0                	test   %al,%al
  1002bc:	74 2c                	je     1002ea <_ZN6kernel6threadD1Ev+0x68>
		{
			this->proc->thrds.erase(it);
  1002be:	8b 45 08             	mov    0x8(%ebp),%eax
  1002c1:	8b 40 18             	mov    0x18(%eax),%eax
  1002c4:	8d 98 54 04 00 00    	lea    0x454(%eax),%ebx
  1002ca:	8d 4d e0             	lea    -0x20(%ebp),%ecx
  1002cd:	8b 45 d8             	mov    -0x28(%ebp),%eax
  1002d0:	8b 55 dc             	mov    -0x24(%ebp),%edx
  1002d3:	89 44 24 08          	mov    %eax,0x8(%esp)
  1002d7:	89 54 24 0c          	mov    %edx,0xc(%esp)
  1002db:	89 5c 24 04          	mov    %ebx,0x4(%esp)
  1002df:	89 0c 24             	mov    %ecx,(%esp)
  1002e2:	e8 9b bd 00 00       	call   10c082 <_ZN5tools4listIN6kernel6threadEE5eraseENS3_8iteratorE>
  1002e7:	83 ec 04             	sub    $0x4,%esp
	this->proc->thrds.push_back(this);
}

thread::~thread(  )
{
	for(tools::list<thread>::iterator it = this->proc->thrds.begin(); it != this->proc->thrds.end(); it++)
  1002ea:	8d 45 e8             	lea    -0x18(%ebp),%eax
  1002ed:	c7 44 24 08 00 00 00 	movl   $0x0,0x8(%esp)
  1002f4:	00 
  1002f5:	8d 55 d8             	lea    -0x28(%ebp),%edx
  1002f8:	89 54 24 04          	mov    %edx,0x4(%esp)
  1002fc:	89 04 24             	mov    %eax,(%esp)
  1002ff:	e8 2e bf 00 00       	call   10c232 <_ZN5tools4listIN6kernel6threadEE8iteratorppEi>
  100304:	83 ec 04             	sub    $0x4,%esp
  100307:	8b 45 08             	mov    0x8(%ebp),%eax
  10030a:	8b 40 18             	mov    0x18(%eax),%eax
  10030d:	8d 90 54 04 00 00    	lea    0x454(%eax),%edx
  100313:	8d 45 f0             	lea    -0x10(%ebp),%eax
  100316:	89 54 24 04          	mov    %edx,0x4(%esp)
  10031a:	89 04 24             	mov    %eax,(%esp)
  10031d:	e8 a4 be 00 00       	call   10c1c6 <_ZN5tools4listIN6kernel6threadEE3endEv>
  100322:	83 ec 04             	sub    $0x4,%esp
  100325:	8d 45 f0             	lea    -0x10(%ebp),%eax
  100328:	89 44 24 04          	mov    %eax,0x4(%esp)
  10032c:	8d 45 d8             	lea    -0x28(%ebp),%eax
  10032f:	89 04 24             	mov    %eax,(%esp)
  100332:	e8 db be 00 00       	call   10c212 <_ZN5tools4listIN6kernel6threadEE8iteratorneERKS4_>
  100337:	84 c0                	test   %al,%al
  100339:	0f 95 c0             	setne  %al
  10033c:	84 c0                	test   %al,%al
  10033e:	0f 85 65 ff ff ff    	jne    1002a9 <_ZN6kernel6threadD1Ev+0x27>
		{
			this->proc->thrds.erase(it);
		}
	}

	kernel::free((void*)this->kstack);
  100344:	8b 45 08             	mov    0x8(%ebp),%eax
  100347:	8b 40 14             	mov    0x14(%eax),%eax
  10034a:	89 04 24             	mov    %eax,(%esp)
  10034d:	e8 db 1b 00 00       	call   101f2d <_ZN6kernel4freeEPv>
	
	(*this->proc->memmgr).free(this->ustack, bytes_to_pages(thread::ustack_size));
  100352:	8b 45 08             	mov    0x8(%ebp),%eax
  100355:	8b 50 10             	mov    0x10(%eax),%edx
  100358:	8b 45 08             	mov    0x8(%ebp),%eax
  10035b:	8b 40 18             	mov    0x18(%eax),%eax
  10035e:	8b 80 50 04 00 00    	mov    0x450(%eax),%eax
  100364:	c7 44 24 08 04 00 00 	movl   $0x4,0x8(%esp)
  10036b:	00 
  10036c:	89 54 24 04          	mov    %edx,0x4(%esp)
  100370:	89 04 24             	mov    %eax,(%esp)
  100373:	e8 16 46 00 00       	call   10498e <_ZN3hal3x863vmm4freeEjj>
}
  100378:	8b 5d fc             	mov    -0x4(%ebp),%ebx
  10037b:	c9                   	leave  
  10037c:	c3                   	ret    
  10037d:	90                   	nop

0010037e <_ZN6kernel6thread4infoEv>:

thread::info_t thread::info(  )
{
  10037e:	55                   	push   %ebp
  10037f:	89 e5                	mov    %esp,%ebp
	static thread::info_t info;

	info.id    = this->id;
  100381:	8b 45 0c             	mov    0xc(%ebp),%eax
  100384:	8b 00                	mov    (%eax),%eax
  100386:	a3 44 30 13 00       	mov    %eax,0x133044
	info.state = this->state;
  10038b:	8b 45 0c             	mov    0xc(%ebp),%eax
  10038e:	8b 40 04             	mov    0x4(%eax),%eax
  100391:	a3 48 30 13 00       	mov    %eax,0x133048
	info.flags = this->flags;
  100396:	8b 45 0c             	mov    0xc(%ebp),%eax
  100399:	8b 40 08             	mov    0x8(%eax),%eax
  10039c:	a3 4c 30 13 00       	mov    %eax,0x13304c

	return info;
  1003a1:	8b 45 08             	mov    0x8(%ebp),%eax
  1003a4:	8b 15 44 30 13 00    	mov    0x133044,%edx
  1003aa:	89 10                	mov    %edx,(%eax)
  1003ac:	8b 15 48 30 13 00    	mov    0x133048,%edx
  1003b2:	89 50 04             	mov    %edx,0x4(%eax)
  1003b5:	8b 15 4c 30 13 00    	mov    0x13304c,%edx
  1003bb:	89 50 08             	mov    %edx,0x8(%eax)
}
  1003be:	8b 45 08             	mov    0x8(%ebp),%eax
  1003c1:	5d                   	pop    %ebp
  1003c2:	c2 04 00             	ret    $0x4
  1003c5:	90                   	nop

001003c6 <_ZN6kernel6thread4saveEPN3hal3x863cpu9cpu_stateE>:

void thread::save( cpu::cpu_state *cpu )
{
  1003c6:	55                   	push   %ebp
  1003c7:	89 e5                	mov    %esp,%ebp
	this->cpu = cpu;
  1003c9:	8b 45 08             	mov    0x8(%ebp),%eax
  1003cc:	8b 55 0c             	mov    0xc(%ebp),%edx
  1003cf:	89 50 0c             	mov    %edx,0xc(%eax)
}
  1003d2:	5d                   	pop    %ebp
  1003d3:	c3                   	ret    

001003d4 <_ZN6kernel6thread7restoreEv>:

cpu::cpu_state *thread::restore(  )
{
  1003d4:	55                   	push   %ebp
  1003d5:	89 e5                	mov    %esp,%ebp
	return this->cpu;
  1003d7:	8b 45 08             	mov    0x8(%ebp),%eax
  1003da:	8b 40 0c             	mov    0xc(%eax),%eax
}
  1003dd:	5d                   	pop    %ebp
  1003de:	c3                   	ret    
  1003df:	90                   	nop

001003e0 <_ZN6kernel9threadmgrC1Ev>:



threadmgr::threadmgr(  )
  1003e0:	55                   	push   %ebp
  1003e1:	89 e5                	mov    %esp,%ebp
  1003e3:	83 ec 18             	sub    $0x18,%esp
  1003e6:	8b 45 08             	mov    0x8(%ebp),%eax
  1003e9:	89 04 24             	mov    %eax,(%esp)
  1003ec:	e8 73 be 00 00       	call   10c264 <_ZN5tools4listIN6kernel6threadEEC1Ev>
{

}
  1003f1:	c9                   	leave  
  1003f2:	c3                   	ret    
  1003f3:	90                   	nop

001003f4 <_ZN6kernel9threadmgr3addEPNS_6threadE>:

void threadmgr::add( thread *thrd )
{
  1003f4:	55                   	push   %ebp
  1003f5:	89 e5                	mov    %esp,%ebp
  1003f7:	83 ec 18             	sub    $0x18,%esp
	if(thrd && this->get(thrd) == nullptr)
  1003fa:	83 7d 0c 00          	cmpl   $0x0,0xc(%ebp)
  1003fe:	74 1d                	je     10041d <_ZN6kernel9threadmgr3addEPNS_6threadE+0x29>
  100400:	8b 45 0c             	mov    0xc(%ebp),%eax
  100403:	89 44 24 04          	mov    %eax,0x4(%esp)
  100407:	8b 45 08             	mov    0x8(%ebp),%eax
  10040a:	89 04 24             	mov    %eax,(%esp)
  10040d:	e8 88 01 00 00       	call   10059a <_ZN6kernel9threadmgr3getEPNS_6threadE>
  100412:	85 c0                	test   %eax,%eax
  100414:	75 07                	jne    10041d <_ZN6kernel9threadmgr3addEPNS_6threadE+0x29>
  100416:	b8 01 00 00 00       	mov    $0x1,%eax
  10041b:	eb 05                	jmp    100422 <_ZN6kernel9threadmgr3addEPNS_6threadE+0x2e>
  10041d:	b8 00 00 00 00       	mov    $0x0,%eax
  100422:	84 c0                	test   %al,%al
  100424:	74 12                	je     100438 <_ZN6kernel9threadmgr3addEPNS_6threadE+0x44>
	{
		this->thrds.push_back(thrd);
  100426:	8b 45 08             	mov    0x8(%ebp),%eax
  100429:	8b 55 0c             	mov    0xc(%ebp),%edx
  10042c:	89 54 24 04          	mov    %edx,0x4(%esp)
  100430:	89 04 24             	mov    %eax,(%esp)
  100433:	e8 46 bd 00 00       	call   10c17e <_ZN5tools4listIN6kernel6threadEE9push_backEPS2_>
	}
}
  100438:	c9                   	leave  
  100439:	c3                   	ret    

0010043a <_ZN6kernel9threadmgr6removeEPNS_6threadE>:

void threadmgr::remove( thread *thrd )
{
  10043a:	55                   	push   %ebp
  10043b:	89 e5                	mov    %esp,%ebp
  10043d:	53                   	push   %ebx
  10043e:	83 ec 34             	sub    $0x34,%esp
	for(tools::list<thread>::iterator it = this->thrds.begin(); it != this->thrds.end(); it++)
  100441:	8b 55 08             	mov    0x8(%ebp),%edx
  100444:	8d 45 d8             	lea    -0x28(%ebp),%eax
  100447:	89 54 24 04          	mov    %edx,0x4(%esp)
  10044b:	89 04 24             	mov    %eax,(%esp)
  10044e:	e8 d9 bb 00 00       	call   10c02c <_ZN5tools4listIN6kernel6threadEE5beginEv>
  100453:	83 ec 04             	sub    $0x4,%esp
  100456:	eb 55                	jmp    1004ad <_ZN6kernel9threadmgr6removeEPNS_6threadE+0x73>
	{
		if(*it == thrd)
  100458:	8d 45 d8             	lea    -0x28(%ebp),%eax
  10045b:	89 04 24             	mov    %eax,(%esp)
  10045e:	e8 13 bc 00 00       	call   10c076 <_ZN5tools4listIN6kernel6threadEE8iteratordeEv>
  100463:	3b 45 0c             	cmp    0xc(%ebp),%eax
  100466:	0f 94 c0             	sete   %al
  100469:	84 c0                	test   %al,%al
  10046b:	74 23                	je     100490 <_ZN6kernel9threadmgr6removeEPNS_6threadE+0x56>
		{
			this->thrds.erase(it);	
  10046d:	8b 5d 08             	mov    0x8(%ebp),%ebx
  100470:	8d 4d e0             	lea    -0x20(%ebp),%ecx
  100473:	8b 45 d8             	mov    -0x28(%ebp),%eax
  100476:	8b 55 dc             	mov    -0x24(%ebp),%edx
  100479:	89 44 24 08          	mov    %eax,0x8(%esp)
  10047d:	89 54 24 0c          	mov    %edx,0xc(%esp)
  100481:	89 5c 24 04          	mov    %ebx,0x4(%esp)
  100485:	89 0c 24             	mov    %ecx,(%esp)
  100488:	e8 f5 bb 00 00       	call   10c082 <_ZN5tools4listIN6kernel6threadEE5eraseENS3_8iteratorE>
  10048d:	83 ec 04             	sub    $0x4,%esp
	}
}

void threadmgr::remove( thread *thrd )
{
	for(tools::list<thread>::iterator it = this->thrds.begin(); it != this->thrds.end(); it++)
  100490:	8d 45 e8             	lea    -0x18(%ebp),%eax
  100493:	c7 44 24 08 00 00 00 	movl   $0x0,0x8(%esp)
  10049a:	00 
  10049b:	8d 55 d8             	lea    -0x28(%ebp),%edx
  10049e:	89 54 24 04          	mov    %edx,0x4(%esp)
  1004a2:	89 04 24             	mov    %eax,(%esp)
  1004a5:	e8 88 bd 00 00       	call   10c232 <_ZN5tools4listIN6kernel6threadEE8iteratorppEi>
  1004aa:	83 ec 04             	sub    $0x4,%esp
  1004ad:	8b 55 08             	mov    0x8(%ebp),%edx
  1004b0:	8d 45 f0             	lea    -0x10(%ebp),%eax
  1004b3:	89 54 24 04          	mov    %edx,0x4(%esp)
  1004b7:	89 04 24             	mov    %eax,(%esp)
  1004ba:	e8 07 bd 00 00       	call   10c1c6 <_ZN5tools4listIN6kernel6threadEE3endEv>
  1004bf:	83 ec 04             	sub    $0x4,%esp
  1004c2:	8d 45 f0             	lea    -0x10(%ebp),%eax
  1004c5:	89 44 24 04          	mov    %eax,0x4(%esp)
  1004c9:	8d 45 d8             	lea    -0x28(%ebp),%eax
  1004cc:	89 04 24             	mov    %eax,(%esp)
  1004cf:	e8 3e bd 00 00       	call   10c212 <_ZN5tools4listIN6kernel6threadEE8iteratorneERKS4_>
  1004d4:	84 c0                	test   %al,%al
  1004d6:	0f 95 c0             	setne  %al
  1004d9:	84 c0                	test   %al,%al
  1004db:	0f 85 77 ff ff ff    	jne    100458 <_ZN6kernel9threadmgr6removeEPNS_6threadE+0x1e>
		if(*it == thrd)
		{
			this->thrds.erase(it);	
		}
	}
}
  1004e1:	8b 5d fc             	mov    -0x4(%ebp),%ebx
  1004e4:	c9                   	leave  
  1004e5:	c3                   	ret    

001004e6 <_ZN6kernel9threadmgr3getEj>:

thread *threadmgr::get( thread::id_t id )
{
  1004e6:	55                   	push   %ebp
  1004e7:	89 e5                	mov    %esp,%ebp
  1004e9:	83 ec 38             	sub    $0x38,%esp
	if(this->thrds.empty())
  1004ec:	8b 45 08             	mov    0x8(%ebp),%eax
  1004ef:	89 04 24             	mov    %eax,(%esp)
  1004f2:	e8 d3 ba 00 00       	call   10bfca <_ZN5tools4listIN6kernel6threadEE5emptyEv>
  1004f7:	84 c0                	test   %al,%al
  1004f9:	0f 95 c0             	setne  %al
  1004fc:	84 c0                	test   %al,%al
  1004fe:	74 0a                	je     10050a <_ZN6kernel9threadmgr3getEj+0x24>
	{
		return nullptr;
  100500:	b8 00 00 00 00       	mov    $0x0,%eax
  100505:	e9 8d 00 00 00       	jmp    100597 <_ZN6kernel9threadmgr3getEj+0xb1>
	}

	for(tools::list<thread>::iterator it = this->thrds.begin(); it != this->thrds.end(); it++)
  10050a:	8b 55 08             	mov    0x8(%ebp),%edx
  10050d:	8d 45 e0             	lea    -0x20(%ebp),%eax
  100510:	89 54 24 04          	mov    %edx,0x4(%esp)
  100514:	89 04 24             	mov    %eax,(%esp)
  100517:	e8 10 bb 00 00       	call   10c02c <_ZN5tools4listIN6kernel6threadEE5beginEv>
  10051c:	83 ec 04             	sub    $0x4,%esp
  10051f:	eb 41                	jmp    100562 <_ZN6kernel9threadmgr3getEj+0x7c>
	{
		if(it->id == id)
  100521:	8d 45 e0             	lea    -0x20(%ebp),%eax
  100524:	89 04 24             	mov    %eax,(%esp)
  100527:	e8 d0 bd 00 00       	call   10c2fc <_ZN5tools4listIN6kernel6threadEE8iteratorptEv>
  10052c:	8b 00                	mov    (%eax),%eax
  10052e:	3b 45 0c             	cmp    0xc(%ebp),%eax
  100531:	0f 94 c0             	sete   %al
  100534:	84 c0                	test   %al,%al
  100536:	74 0d                	je     100545 <_ZN6kernel9threadmgr3getEj+0x5f>
		{
			return *it;
  100538:	8d 45 e0             	lea    -0x20(%ebp),%eax
  10053b:	89 04 24             	mov    %eax,(%esp)
  10053e:	e8 33 bb 00 00       	call   10c076 <_ZN5tools4listIN6kernel6threadEE8iteratordeEv>
  100543:	eb 52                	jmp    100597 <_ZN6kernel9threadmgr3getEj+0xb1>
	if(this->thrds.empty())
	{
		return nullptr;
	}

	for(tools::list<thread>::iterator it = this->thrds.begin(); it != this->thrds.end(); it++)
  100545:	8d 45 e8             	lea    -0x18(%ebp),%eax
  100548:	c7 44 24 08 00 00 00 	movl   $0x0,0x8(%esp)
  10054f:	00 
  100550:	8d 55 e0             	lea    -0x20(%ebp),%edx
  100553:	89 54 24 04          	mov    %edx,0x4(%esp)
  100557:	89 04 24             	mov    %eax,(%esp)
  10055a:	e8 d3 bc 00 00       	call   10c232 <_ZN5tools4listIN6kernel6threadEE8iteratorppEi>
  10055f:	83 ec 04             	sub    $0x4,%esp
  100562:	8b 55 08             	mov    0x8(%ebp),%edx
  100565:	8d 45 f0             	lea    -0x10(%ebp),%eax
  100568:	89 54 24 04          	mov    %edx,0x4(%esp)
  10056c:	89 04 24             	mov    %eax,(%esp)
  10056f:	e8 52 bc 00 00       	call   10c1c6 <_ZN5tools4listIN6kernel6threadEE3endEv>
  100574:	83 ec 04             	sub    $0x4,%esp
  100577:	8d 45 f0             	lea    -0x10(%ebp),%eax
  10057a:	89 44 24 04          	mov    %eax,0x4(%esp)
  10057e:	8d 45 e0             	lea    -0x20(%ebp),%eax
  100581:	89 04 24             	mov    %eax,(%esp)
  100584:	e8 89 bc 00 00       	call   10c212 <_ZN5tools4listIN6kernel6threadEE8iteratorneERKS4_>
  100589:	84 c0                	test   %al,%al
  10058b:	0f 95 c0             	setne  %al
  10058e:	84 c0                	test   %al,%al
  100590:	75 8f                	jne    100521 <_ZN6kernel9threadmgr3getEj+0x3b>
		{
			return *it;
		}
	}

	return nullptr;
  100592:	b8 00 00 00 00       	mov    $0x0,%eax
}
  100597:	c9                   	leave  
  100598:	c3                   	ret    
  100599:	90                   	nop

0010059a <_ZN6kernel9threadmgr3getEPNS_6threadE>:

thread *threadmgr::get( thread *thrd )
{
  10059a:	55                   	push   %ebp
  10059b:	89 e5                	mov    %esp,%ebp
  10059d:	83 ec 38             	sub    $0x38,%esp
	if(this->thrds.empty())
  1005a0:	8b 45 08             	mov    0x8(%ebp),%eax
  1005a3:	89 04 24             	mov    %eax,(%esp)
  1005a6:	e8 1f ba 00 00       	call   10bfca <_ZN5tools4listIN6kernel6threadEE5emptyEv>
  1005ab:	84 c0                	test   %al,%al
  1005ad:	0f 95 c0             	setne  %al
  1005b0:	84 c0                	test   %al,%al
  1005b2:	74 0a                	je     1005be <_ZN6kernel9threadmgr3getEPNS_6threadE+0x24>
	{
		return nullptr;
  1005b4:	b8 00 00 00 00       	mov    $0x0,%eax
  1005b9:	e9 8b 00 00 00       	jmp    100649 <_ZN6kernel9threadmgr3getEPNS_6threadE+0xaf>
	}

	for(tools::list<thread>::iterator it = this->thrds.begin(); it != this->thrds.end(); it++)
  1005be:	8b 55 08             	mov    0x8(%ebp),%edx
  1005c1:	8d 45 e0             	lea    -0x20(%ebp),%eax
  1005c4:	89 54 24 04          	mov    %edx,0x4(%esp)
  1005c8:	89 04 24             	mov    %eax,(%esp)
  1005cb:	e8 5c ba 00 00       	call   10c02c <_ZN5tools4listIN6kernel6threadEE5beginEv>
  1005d0:	83 ec 04             	sub    $0x4,%esp
  1005d3:	eb 3f                	jmp    100614 <_ZN6kernel9threadmgr3getEPNS_6threadE+0x7a>
	{
		if(*it == thrd)
  1005d5:	8d 45 e0             	lea    -0x20(%ebp),%eax
  1005d8:	89 04 24             	mov    %eax,(%esp)
  1005db:	e8 96 ba 00 00       	call   10c076 <_ZN5tools4listIN6kernel6threadEE8iteratordeEv>
  1005e0:	3b 45 0c             	cmp    0xc(%ebp),%eax
  1005e3:	0f 94 c0             	sete   %al
  1005e6:	84 c0                	test   %al,%al
  1005e8:	74 0d                	je     1005f7 <_ZN6kernel9threadmgr3getEPNS_6threadE+0x5d>
		{
			return *it;
  1005ea:	8d 45 e0             	lea    -0x20(%ebp),%eax
  1005ed:	89 04 24             	mov    %eax,(%esp)
  1005f0:	e8 81 ba 00 00       	call   10c076 <_ZN5tools4listIN6kernel6threadEE8iteratordeEv>
  1005f5:	eb 52                	jmp    100649 <_ZN6kernel9threadmgr3getEPNS_6threadE+0xaf>
	if(this->thrds.empty())
	{
		return nullptr;
	}

	for(tools::list<thread>::iterator it = this->thrds.begin(); it != this->thrds.end(); it++)
  1005f7:	8d 45 e8             	lea    -0x18(%ebp),%eax
  1005fa:	c7 44 24 08 00 00 00 	movl   $0x0,0x8(%esp)
  100601:	00 
  100602:	8d 55 e0             	lea    -0x20(%ebp),%edx
  100605:	89 54 24 04          	mov    %edx,0x4(%esp)
  100609:	89 04 24             	mov    %eax,(%esp)
  10060c:	e8 21 bc 00 00       	call   10c232 <_ZN5tools4listIN6kernel6threadEE8iteratorppEi>
  100611:	83 ec 04             	sub    $0x4,%esp
  100614:	8b 55 08             	mov    0x8(%ebp),%edx
  100617:	8d 45 f0             	lea    -0x10(%ebp),%eax
  10061a:	89 54 24 04          	mov    %edx,0x4(%esp)
  10061e:	89 04 24             	mov    %eax,(%esp)
  100621:	e8 a0 bb 00 00       	call   10c1c6 <_ZN5tools4listIN6kernel6threadEE3endEv>
  100626:	83 ec 04             	sub    $0x4,%esp
  100629:	8d 45 f0             	lea    -0x10(%ebp),%eax
  10062c:	89 44 24 04          	mov    %eax,0x4(%esp)
  100630:	8d 45 e0             	lea    -0x20(%ebp),%eax
  100633:	89 04 24             	mov    %eax,(%esp)
  100636:	e8 d7 bb 00 00       	call   10c212 <_ZN5tools4listIN6kernel6threadEE8iteratorneERKS4_>
  10063b:	84 c0                	test   %al,%al
  10063d:	0f 95 c0             	setne  %al
  100640:	84 c0                	test   %al,%al
  100642:	75 91                	jne    1005d5 <_ZN6kernel9threadmgr3getEPNS_6threadE+0x3b>
		{
			return *it;
		}
	}

	return nullptr;
  100644:	b8 00 00 00 00       	mov    $0x0,%eax
}
  100649:	c9                   	leave  
  10064a:	c3                   	ret    
  10064b:	90                   	nop

0010064c <_ZNKUlcE_clEc>:
  *
  *		The standard-output is defined with a function (c++ lambda-function) putting a char to 'screen' or 'seri' (defined in 'hal').
  *		If compiled with 'QEMU_DEBUG' option, the char is also send to the qemu serial port.
  */
#if defined(OUTPUT_SCREEN) && defined(QEMU_DEBUG) 
output kernel::kout = output( []( char c ){ screen.putc(c); io::outb(definitions::qemu_serial, c); } );
  10064c:	55                   	push   %ebp
  10064d:	89 e5                	mov    %esp,%ebp
  10064f:	83 ec 18             	sub    $0x18,%esp
  100652:	8b 45 0c             	mov    0xc(%ebp),%eax
  100655:	88 45 f4             	mov    %al,-0xc(%ebp)
  100658:	0f be 45 f4          	movsbl -0xc(%ebp),%eax
  10065c:	89 44 24 04          	mov    %eax,0x4(%esp)
  100660:	c7 04 24 d4 38 13 00 	movl   $0x1338d4,(%esp)
  100667:	e8 88 8e 00 00       	call   1094f4 <_ZN3hal3x865video4putcEc>
  10066c:	0f b6 45 f4          	movzbl -0xc(%ebp),%eax
  100670:	0f b6 c0             	movzbl %al,%eax
  100673:	89 44 24 04          	mov    %eax,0x4(%esp)
  100677:	c7 04 24 f8 03 00 00 	movl   $0x3f8,(%esp)
  10067e:	e8 01 94 00 00       	call   109a84 <_ZN3hal3x862io4outbEth>
  100683:	c9                   	leave  
  100684:	c3                   	ret    
  100685:	90                   	nop

00100686 <_ZNUlcE_4_FUNEc>:
  100686:	55                   	push   %ebp
  100687:	89 e5                	mov    %esp,%ebp
  100689:	83 ec 18             	sub    $0x18,%esp
  10068c:	8b 45 08             	mov    0x8(%ebp),%eax
  10068f:	88 45 f4             	mov    %al,-0xc(%ebp)
  100692:	0f b6 45 f4          	movzbl -0xc(%ebp),%eax
  100696:	88 44 24 04          	mov    %al,0x4(%esp)
  10069a:	c7 04 24 00 00 00 00 	movl   $0x0,(%esp)
  1006a1:	e8 a6 ff ff ff       	call   10064c <_ZNKUlcE_clEc>
  1006a6:	c9                   	leave  
  1006a7:	c3                   	ret    

001006a8 <_ZNKUlcE_cvPFvcEEv>:
  1006a8:	55                   	push   %ebp
  1006a9:	89 e5                	mov    %esp,%ebp
  1006ab:	b8 86 06 10 00       	mov    $0x100686,%eax
  1006b0:	5d                   	pop    %ebp
  1006b1:	c3                   	ret    

001006b2 <_ZN6kernel6outputC1Ev>:
#endif

/*
Constructors
*/
output::output(  ) : out_(nullptr)
  1006b2:	55                   	push   %ebp
  1006b3:	89 e5                	mov    %esp,%ebp
  1006b5:	83 ec 18             	sub    $0x18,%esp
  1006b8:	8b 45 08             	mov    0x8(%ebp),%eax
  1006bb:	c7 00 00 00 00 00    	movl   $0x0,(%eax)
{
	this->setf(output::dec_, output::basefield_);
  1006c1:	c7 44 24 08 07 00 00 	movl   $0x7,0x8(%esp)
  1006c8:	00 
  1006c9:	c7 44 24 04 01 00 00 	movl   $0x1,0x4(%esp)
  1006d0:	00 
  1006d1:	8b 45 08             	mov    0x8(%ebp),%eax
  1006d4:	89 04 24             	mov    %eax,(%esp)
  1006d7:	e8 8c 00 00 00       	call   100768 <_ZN6kernel6output4setfEjj>
}
  1006dc:	c9                   	leave  
  1006dd:	c3                   	ret    

001006de <_ZN6kernel6outputC1EPFvcE>:

output::output( outc_t pf ) : out_(pf)
  1006de:	55                   	push   %ebp
  1006df:	89 e5                	mov    %esp,%ebp
  1006e1:	83 ec 18             	sub    $0x18,%esp
  1006e4:	8b 45 08             	mov    0x8(%ebp),%eax
  1006e7:	8b 55 0c             	mov    0xc(%ebp),%edx
  1006ea:	89 10                	mov    %edx,(%eax)
{
	this->setf(output::dec_, output::basefield_);
  1006ec:	c7 44 24 08 07 00 00 	movl   $0x7,0x8(%esp)
  1006f3:	00 
  1006f4:	c7 44 24 04 01 00 00 	movl   $0x1,0x4(%esp)
  1006fb:	00 
  1006fc:	8b 45 08             	mov    0x8(%ebp),%eax
  1006ff:	89 04 24             	mov    %eax,(%esp)
  100702:	e8 61 00 00 00       	call   100768 <_ZN6kernel6output4setfEjj>
}
  100707:	c9                   	leave  
  100708:	c3                   	ret    
  100709:	90                   	nop

0010070a <_ZN6kernel6output4setoEPFvcE>:

/*
Set output-method
*/
void output::seto( outc_t pf )
{
  10070a:	55                   	push   %ebp
  10070b:	89 e5                	mov    %esp,%ebp
	this->out_ = pf;
  10070d:	8b 45 08             	mov    0x8(%ebp),%eax
  100710:	8b 55 0c             	mov    0xc(%ebp),%edx
  100713:	89 10                	mov    %edx,(%eax)
}
  100715:	5d                   	pop    %ebp
  100716:	c3                   	ret    
  100717:	90                   	nop

00100718 <_ZN6kernel6output5flagsEv>:

/*
Set/Get fmtflags
*/
output::fmtflags_t output::flags(  )
{
  100718:	55                   	push   %ebp
  100719:	89 e5                	mov    %esp,%ebp
	return this->fmtflags_;
  10071b:	8b 45 08             	mov    0x8(%ebp),%eax
  10071e:	8b 40 04             	mov    0x4(%eax),%eax
}
  100721:	5d                   	pop    %ebp
  100722:	c3                   	ret    
  100723:	90                   	nop

00100724 <_ZN6kernel6output5flagsEj>:

output::fmtflags_t output::flags( output::fmtflags_t fmtfl )
{
  100724:	55                   	push   %ebp
  100725:	89 e5                	mov    %esp,%ebp
  100727:	83 ec 10             	sub    $0x10,%esp
	output::fmtflags_t tmp = this->fmtflags_;
  10072a:	8b 45 08             	mov    0x8(%ebp),%eax
  10072d:	8b 40 04             	mov    0x4(%eax),%eax
  100730:	89 45 fc             	mov    %eax,-0x4(%ebp)

	this->fmtflags_ = fmtfl;
  100733:	8b 45 08             	mov    0x8(%ebp),%eax
  100736:	8b 55 0c             	mov    0xc(%ebp),%edx
  100739:	89 50 04             	mov    %edx,0x4(%eax)

	return tmp;
  10073c:	8b 45 fc             	mov    -0x4(%ebp),%eax
}
  10073f:	c9                   	leave  
  100740:	c3                   	ret    
  100741:	90                   	nop

00100742 <_ZN6kernel6output4setfEj>:

output::fmtflags_t output::setf( output::fmtflags_t fmtfl )
{
  100742:	55                   	push   %ebp
  100743:	89 e5                	mov    %esp,%ebp
  100745:	83 ec 10             	sub    $0x10,%esp
	output::fmtflags_t tmp = this->fmtflags_;
  100748:	8b 45 08             	mov    0x8(%ebp),%eax
  10074b:	8b 40 04             	mov    0x4(%eax),%eax
  10074e:	89 45 fc             	mov    %eax,-0x4(%ebp)

	this->fmtflags_ = fmtfl | this->fmtflags_;
  100751:	8b 45 08             	mov    0x8(%ebp),%eax
  100754:	8b 40 04             	mov    0x4(%eax),%eax
  100757:	0b 45 0c             	or     0xc(%ebp),%eax
  10075a:	89 c2                	mov    %eax,%edx
  10075c:	8b 45 08             	mov    0x8(%ebp),%eax
  10075f:	89 50 04             	mov    %edx,0x4(%eax)

	return tmp;
  100762:	8b 45 fc             	mov    -0x4(%ebp),%eax
}
  100765:	c9                   	leave  
  100766:	c3                   	ret    
  100767:	90                   	nop

00100768 <_ZN6kernel6output4setfEjj>:

output::fmtflags_t output::setf( output::fmtflags_t fmtfl, output::fmtflags_t mask )
{
  100768:	55                   	push   %ebp
  100769:	89 e5                	mov    %esp,%ebp
  10076b:	83 ec 10             	sub    $0x10,%esp
	output::fmtflags_t tmp = this->fmtflags_;
  10076e:	8b 45 08             	mov    0x8(%ebp),%eax
  100771:	8b 40 04             	mov    0x4(%eax),%eax
  100774:	89 45 fc             	mov    %eax,-0x4(%ebp)

	this->fmtflags_ = fmtfl | (this->fmtflags_ & (~mask));
  100777:	8b 45 08             	mov    0x8(%ebp),%eax
  10077a:	8b 40 04             	mov    0x4(%eax),%eax
  10077d:	8b 55 10             	mov    0x10(%ebp),%edx
  100780:	f7 d2                	not    %edx
  100782:	21 d0                	and    %edx,%eax
  100784:	0b 45 0c             	or     0xc(%ebp),%eax
  100787:	89 c2                	mov    %eax,%edx
  100789:	8b 45 08             	mov    0x8(%ebp),%eax
  10078c:	89 50 04             	mov    %edx,0x4(%eax)

	return tmp;
  10078f:	8b 45 fc             	mov    -0x4(%ebp),%eax
}
  100792:	c9                   	leave  
  100793:	c3                   	ret    

00100794 <_ZN6kernel6output6unsetfEj>:

void output::unsetf( output::fmtflags_t mask )
{
  100794:	55                   	push   %ebp
  100795:	89 e5                	mov    %esp,%ebp
	this->fmtflags_ = this->fmtflags_ ^ mask;
  100797:	8b 45 08             	mov    0x8(%ebp),%eax
  10079a:	8b 40 04             	mov    0x4(%eax),%eax
  10079d:	33 45 0c             	xor    0xc(%ebp),%eax
  1007a0:	89 c2                	mov    %eax,%edx
  1007a2:	8b 45 08             	mov    0x8(%ebp),%eax
  1007a5:	89 50 04             	mov    %edx,0x4(%eax)
}
  1007a8:	5d                   	pop    %ebp
  1007a9:	c3                   	ret    

001007aa <_ZN6kernel6output4putcEc>:

/*
Output Methods
*/
void output::putc( char c )
{
  1007aa:	55                   	push   %ebp
  1007ab:	89 e5                	mov    %esp,%ebp
  1007ad:	83 ec 18             	sub    $0x18,%esp
  1007b0:	8b 45 0c             	mov    0xc(%ebp),%eax
  1007b3:	88 45 f4             	mov    %al,-0xc(%ebp)
	this->out_(c);
  1007b6:	8b 45 08             	mov    0x8(%ebp),%eax
  1007b9:	8b 00                	mov    (%eax),%eax
  1007bb:	0f be 55 f4          	movsbl -0xc(%ebp),%edx
  1007bf:	89 14 24             	mov    %edx,(%esp)
  1007c2:	ff d0                	call   *%eax
}
  1007c4:	c9                   	leave  
  1007c5:	c3                   	ret    

001007c6 <_ZN6kernel6output4putnEl>:

void output::putn( long n )
{
  1007c6:	55                   	push   %ebp
  1007c7:	89 e5                	mov    %esp,%ebp
  1007c9:	83 ec 78             	sub    $0x78,%esp
	static const char digits[] = "0123456789abcdefghijklmnopqrstuvwxyz"; 

	unsigned long base = 10;
  1007cc:	c7 45 f4 0a 00 00 00 	movl   $0xa,-0xc(%ebp)

	size_t len = 0;
  1007d3:	c7 45 f0 00 00 00 00 	movl   $0x0,-0x10(%ebp)

	char buf[65];
	char *p;

	p = buf + 64;
  1007da:	8d 45 a7             	lea    -0x59(%ebp),%eax
  1007dd:	83 c0 40             	add    $0x40,%eax
  1007e0:	89 45 ec             	mov    %eax,-0x14(%ebp)

	*p = '\0';
  1007e3:	8b 45 ec             	mov    -0x14(%ebp),%eax
  1007e6:	c6 00 00             	movb   $0x0,(%eax)

	if(this->fmtflags_ & output::hex_)
  1007e9:	8b 45 08             	mov    0x8(%ebp),%eax
  1007ec:	8b 40 04             	mov    0x4(%eax),%eax
  1007ef:	83 e0 02             	and    $0x2,%eax
  1007f2:	85 c0                	test   %eax,%eax
  1007f4:	74 09                	je     1007ff <_ZN6kernel6output4putnEl+0x39>
	{
		base = 16;
  1007f6:	c7 45 f4 10 00 00 00 	movl   $0x10,-0xc(%ebp)
  1007fd:	eb 14                	jmp    100813 <_ZN6kernel6output4putnEl+0x4d>
	}
	else if(this->fmtflags_ & output::oct_)
  1007ff:	8b 45 08             	mov    0x8(%ebp),%eax
  100802:	8b 40 04             	mov    0x4(%eax),%eax
  100805:	83 e0 04             	and    $0x4,%eax
  100808:	85 c0                	test   %eax,%eax
  10080a:	74 07                	je     100813 <_ZN6kernel6output4putnEl+0x4d>
	{
		base = 8;
  10080c:	c7 45 f4 08 00 00 00 	movl   $0x8,-0xc(%ebp)
	}

	do 
	{
		unsigned long d = n % base;
  100813:	8b 45 0c             	mov    0xc(%ebp),%eax
  100816:	ba 00 00 00 00       	mov    $0x0,%edx
  10081b:	f7 75 f4             	divl   -0xc(%ebp)
  10081e:	89 55 e8             	mov    %edx,-0x18(%ebp)

		n /= base;
  100821:	8b 45 0c             	mov    0xc(%ebp),%eax
  100824:	ba 00 00 00 00       	mov    $0x0,%edx
  100829:	f7 75 f4             	divl   -0xc(%ebp)
  10082c:	89 45 0c             	mov    %eax,0xc(%ebp)

		--p;
  10082f:	83 6d ec 01          	subl   $0x1,-0x14(%ebp)
		len++;
  100833:	83 45 f0 01          	addl   $0x1,-0x10(%ebp)
		*p = (char)digits[d];
  100837:	8b 45 e8             	mov    -0x18(%ebp),%eax
  10083a:	05 e0 e1 10 00       	add    $0x10e1e0,%eax
  10083f:	0f b6 10             	movzbl (%eax),%edx
  100842:	8b 45 ec             	mov    -0x14(%ebp),%eax
  100845:	88 10                	mov    %dl,(%eax)
	else if(this->fmtflags_ & output::oct_)
	{
		base = 8;
	}

	do 
  100847:	83 7d 0c 00          	cmpl   $0x0,0xc(%ebp)
  10084b:	75 13                	jne    100860 <_ZN6kernel6output4putnEl+0x9a>
		n /= base;

		--p;
		len++;
		*p = (char)digits[d];
	} while((n || ((this->fmtflags_ & output::hex_) && len < 8)) && p >= buf);
  10084d:	8b 45 08             	mov    0x8(%ebp),%eax
  100850:	8b 40 04             	mov    0x4(%eax),%eax
  100853:	83 e0 02             	and    $0x2,%eax
  100856:	85 c0                	test   %eax,%eax
  100858:	74 0e                	je     100868 <_ZN6kernel6output4putnEl+0xa2>
  10085a:	83 7d f0 07          	cmpl   $0x7,-0x10(%ebp)
  10085e:	77 08                	ja     100868 <_ZN6kernel6output4putnEl+0xa2>
  100860:	8d 45 a7             	lea    -0x59(%ebp),%eax
  100863:	39 45 ec             	cmp    %eax,-0x14(%ebp)
  100866:	73 ab                	jae    100813 <_ZN6kernel6output4putnEl+0x4d>

	if(this->fmtflags_ & output::hex_)
  100868:	8b 45 08             	mov    0x8(%ebp),%eax
  10086b:	8b 40 04             	mov    0x4(%eax),%eax
  10086e:	83 e0 02             	and    $0x2,%eax
  100871:	85 c0                	test   %eax,%eax
  100873:	74 16                	je     10088b <_ZN6kernel6output4putnEl+0xc5>
	{
		*--p = 'x';
  100875:	83 6d ec 01          	subl   $0x1,-0x14(%ebp)
  100879:	8b 45 ec             	mov    -0x14(%ebp),%eax
  10087c:	c6 00 78             	movb   $0x78,(%eax)
		*--p = '0';
  10087f:	83 6d ec 01          	subl   $0x1,-0x14(%ebp)
  100883:	8b 45 ec             	mov    -0x14(%ebp),%eax
  100886:	c6 00 30             	movb   $0x30,(%eax)
  100889:	eb 17                	jmp    1008a2 <_ZN6kernel6output4putnEl+0xdc>
	}
	else if(this->fmtflags_ & output::oct_)
  10088b:	8b 45 08             	mov    0x8(%ebp),%eax
  10088e:	8b 40 04             	mov    0x4(%eax),%eax
  100891:	83 e0 04             	and    $0x4,%eax
  100894:	85 c0                	test   %eax,%eax
  100896:	74 0a                	je     1008a2 <_ZN6kernel6output4putnEl+0xdc>
	{
		*--p = '0';
  100898:	83 6d ec 01          	subl   $0x1,-0x14(%ebp)
  10089c:	8b 45 ec             	mov    -0x14(%ebp),%eax
  10089f:	c6 00 30             	movb   $0x30,(%eax)
	}

	this->puts(p);
  1008a2:	8b 45 ec             	mov    -0x14(%ebp),%eax
  1008a5:	89 44 24 04          	mov    %eax,0x4(%esp)
  1008a9:	8b 45 08             	mov    0x8(%ebp),%eax
  1008ac:	89 04 24             	mov    %eax,(%esp)
  1008af:	e8 02 00 00 00       	call   1008b6 <_ZN6kernel6output4putsEPKc>
}
  1008b4:	c9                   	leave  
  1008b5:	c3                   	ret    

001008b6 <_ZN6kernel6output4putsEPKc>:

void output::puts( const char *s )
{
  1008b6:	55                   	push   %ebp
  1008b7:	89 e5                	mov    %esp,%ebp
  1008b9:	83 ec 18             	sub    $0x18,%esp
	while(*s)
  1008bc:	eb 19                	jmp    1008d7 <_ZN6kernel6output4putsEPKc+0x21>
	{
		this->out_(*s++);
  1008be:	8b 45 08             	mov    0x8(%ebp),%eax
  1008c1:	8b 10                	mov    (%eax),%edx
  1008c3:	8b 45 0c             	mov    0xc(%ebp),%eax
  1008c6:	8d 48 01             	lea    0x1(%eax),%ecx
  1008c9:	89 4d 0c             	mov    %ecx,0xc(%ebp)
  1008cc:	0f b6 00             	movzbl (%eax),%eax
  1008cf:	0f be c0             	movsbl %al,%eax
  1008d2:	89 04 24             	mov    %eax,(%esp)
  1008d5:	ff d2                	call   *%edx
	this->puts(p);
}

void output::puts( const char *s )
{
	while(*s)
  1008d7:	8b 45 0c             	mov    0xc(%ebp),%eax
  1008da:	0f b6 00             	movzbl (%eax),%eax
  1008dd:	84 c0                	test   %al,%al
  1008df:	75 dd                	jne    1008be <_ZN6kernel6output4putsEPKc+0x8>
	{
		this->out_(*s++);
	}
}
  1008e1:	c9                   	leave  
  1008e2:	c3                   	ret    
  1008e3:	90                   	nop

001008e4 <_ZN6kernel6outputlsEc>:

/*
Output Operators
*/
output &output::operator << ( char c )
{
  1008e4:	55                   	push   %ebp
  1008e5:	89 e5                	mov    %esp,%ebp
  1008e7:	83 ec 18             	sub    $0x18,%esp
  1008ea:	8b 45 0c             	mov    0xc(%ebp),%eax
  1008ed:	88 45 f4             	mov    %al,-0xc(%ebp)
	this->putc(c);
  1008f0:	0f be 45 f4          	movsbl -0xc(%ebp),%eax
  1008f4:	89 44 24 04          	mov    %eax,0x4(%esp)
  1008f8:	8b 45 08             	mov    0x8(%ebp),%eax
  1008fb:	89 04 24             	mov    %eax,(%esp)
  1008fe:	e8 a7 fe ff ff       	call   1007aa <_ZN6kernel6output4putcEc>

	return *this;
  100903:	8b 45 08             	mov    0x8(%ebp),%eax
}
  100906:	c9                   	leave  
  100907:	c3                   	ret    

00100908 <_ZN6kernel6outputlsEh>:

output &output::operator << ( unsigned char c )
{
  100908:	55                   	push   %ebp
  100909:	89 e5                	mov    %esp,%ebp
  10090b:	83 ec 18             	sub    $0x18,%esp
  10090e:	8b 45 0c             	mov    0xc(%ebp),%eax
  100911:	88 45 f4             	mov    %al,-0xc(%ebp)
	return (*this << static_cast<char>(c));
  100914:	0f b6 45 f4          	movzbl -0xc(%ebp),%eax
  100918:	0f be c0             	movsbl %al,%eax
  10091b:	89 44 24 04          	mov    %eax,0x4(%esp)
  10091f:	8b 45 08             	mov    0x8(%ebp),%eax
  100922:	89 04 24             	mov    %eax,(%esp)
  100925:	e8 ba ff ff ff       	call   1008e4 <_ZN6kernel6outputlsEc>
}
  10092a:	c9                   	leave  
  10092b:	c3                   	ret    

0010092c <_ZN6kernel6outputlsEs>:
			
output &output::operator << ( short n )
{
  10092c:	55                   	push   %ebp
  10092d:	89 e5                	mov    %esp,%ebp
  10092f:	83 ec 18             	sub    $0x18,%esp
  100932:	8b 45 0c             	mov    0xc(%ebp),%eax
  100935:	66 89 45 f4          	mov    %ax,-0xc(%ebp)
	return (*this << static_cast<long>(n));
  100939:	0f bf 45 f4          	movswl -0xc(%ebp),%eax
  10093d:	89 44 24 04          	mov    %eax,0x4(%esp)
  100941:	8b 45 08             	mov    0x8(%ebp),%eax
  100944:	89 04 24             	mov    %eax,(%esp)
  100947:	e8 58 00 00 00       	call   1009a4 <_ZN6kernel6outputlsEl>
}
  10094c:	c9                   	leave  
  10094d:	c3                   	ret    

0010094e <_ZN6kernel6outputlsEt>:

output &output::operator << ( unsigned short n )
{
  10094e:	55                   	push   %ebp
  10094f:	89 e5                	mov    %esp,%ebp
  100951:	83 ec 18             	sub    $0x18,%esp
  100954:	8b 45 0c             	mov    0xc(%ebp),%eax
  100957:	66 89 45 f4          	mov    %ax,-0xc(%ebp)
	return (*this << static_cast<unsigned long>(n));
  10095b:	0f b7 45 f4          	movzwl -0xc(%ebp),%eax
  10095f:	89 44 24 04          	mov    %eax,0x4(%esp)
  100963:	8b 45 08             	mov    0x8(%ebp),%eax
  100966:	89 04 24             	mov    %eax,(%esp)
  100969:	e8 54 00 00 00       	call   1009c2 <_ZN6kernel6outputlsEm>
}
  10096e:	c9                   	leave  
  10096f:	c3                   	ret    

00100970 <_ZN6kernel6outputlsEi>:

output &output::operator << ( int n )
{
  100970:	55                   	push   %ebp
  100971:	89 e5                	mov    %esp,%ebp
  100973:	83 ec 18             	sub    $0x18,%esp
	return (*this << static_cast<long>(n));
  100976:	8b 45 0c             	mov    0xc(%ebp),%eax
  100979:	89 44 24 04          	mov    %eax,0x4(%esp)
  10097d:	8b 45 08             	mov    0x8(%ebp),%eax
  100980:	89 04 24             	mov    %eax,(%esp)
  100983:	e8 1c 00 00 00       	call   1009a4 <_ZN6kernel6outputlsEl>
}
  100988:	c9                   	leave  
  100989:	c3                   	ret    

0010098a <_ZN6kernel6outputlsEj>:

output &output::operator << ( unsigned int n )
{
  10098a:	55                   	push   %ebp
  10098b:	89 e5                	mov    %esp,%ebp
  10098d:	83 ec 18             	sub    $0x18,%esp
	return (*this << static_cast<unsigned long>(n));
  100990:	8b 45 0c             	mov    0xc(%ebp),%eax
  100993:	89 44 24 04          	mov    %eax,0x4(%esp)
  100997:	8b 45 08             	mov    0x8(%ebp),%eax
  10099a:	89 04 24             	mov    %eax,(%esp)
  10099d:	e8 20 00 00 00       	call   1009c2 <_ZN6kernel6outputlsEm>
}
  1009a2:	c9                   	leave  
  1009a3:	c3                   	ret    

001009a4 <_ZN6kernel6outputlsEl>:

output &output::operator << ( long n )
{
  1009a4:	55                   	push   %ebp
  1009a5:	89 e5                	mov    %esp,%ebp
  1009a7:	83 ec 18             	sub    $0x18,%esp
	this->putn(n);
  1009aa:	8b 45 0c             	mov    0xc(%ebp),%eax
  1009ad:	89 44 24 04          	mov    %eax,0x4(%esp)
  1009b1:	8b 45 08             	mov    0x8(%ebp),%eax
  1009b4:	89 04 24             	mov    %eax,(%esp)
  1009b7:	e8 0a fe ff ff       	call   1007c6 <_ZN6kernel6output4putnEl>
	
	return *this;
  1009bc:	8b 45 08             	mov    0x8(%ebp),%eax
}
  1009bf:	c9                   	leave  
  1009c0:	c3                   	ret    
  1009c1:	90                   	nop

001009c2 <_ZN6kernel6outputlsEm>:

output &output::operator << ( unsigned long n )
{
  1009c2:	55                   	push   %ebp
  1009c3:	89 e5                	mov    %esp,%ebp
  1009c5:	83 ec 18             	sub    $0x18,%esp
	this->putn(n);
  1009c8:	8b 45 0c             	mov    0xc(%ebp),%eax
  1009cb:	89 44 24 04          	mov    %eax,0x4(%esp)
  1009cf:	8b 45 08             	mov    0x8(%ebp),%eax
  1009d2:	89 04 24             	mov    %eax,(%esp)
  1009d5:	e8 ec fd ff ff       	call   1007c6 <_ZN6kernel6output4putnEl>
	
	return *this;
  1009da:	8b 45 08             	mov    0x8(%ebp),%eax
}
  1009dd:	c9                   	leave  
  1009de:	c3                   	ret    
  1009df:	90                   	nop

001009e0 <_ZN6kernel6outputlsEx>:

output &output::operator << ( long long n )
{
  1009e0:	55                   	push   %ebp
  1009e1:	89 e5                	mov    %esp,%ebp
  1009e3:	83 ec 18             	sub    $0x18,%esp
  1009e6:	8b 45 0c             	mov    0xc(%ebp),%eax
  1009e9:	89 45 f0             	mov    %eax,-0x10(%ebp)
  1009ec:	8b 45 10             	mov    0x10(%ebp),%eax
  1009ef:	89 45 f4             	mov    %eax,-0xc(%ebp)
	return (*this << static_cast<long>(n));
  1009f2:	8b 45 f0             	mov    -0x10(%ebp),%eax
  1009f5:	89 44 24 04          	mov    %eax,0x4(%esp)
  1009f9:	8b 45 08             	mov    0x8(%ebp),%eax
  1009fc:	89 04 24             	mov    %eax,(%esp)
  1009ff:	e8 a0 ff ff ff       	call   1009a4 <_ZN6kernel6outputlsEl>
}
  100a04:	c9                   	leave  
  100a05:	c3                   	ret    

00100a06 <_ZN6kernel6outputlsEy>:

output &output::operator << ( unsigned long long n )
{
  100a06:	55                   	push   %ebp
  100a07:	89 e5                	mov    %esp,%ebp
  100a09:	83 ec 18             	sub    $0x18,%esp
  100a0c:	8b 45 0c             	mov    0xc(%ebp),%eax
  100a0f:	89 45 f0             	mov    %eax,-0x10(%ebp)
  100a12:	8b 45 10             	mov    0x10(%ebp),%eax
  100a15:	89 45 f4             	mov    %eax,-0xc(%ebp)
	return (*this << static_cast<unsigned long>(n));
  100a18:	8b 45 f0             	mov    -0x10(%ebp),%eax
  100a1b:	89 44 24 04          	mov    %eax,0x4(%esp)
  100a1f:	8b 45 08             	mov    0x8(%ebp),%eax
  100a22:	89 04 24             	mov    %eax,(%esp)
  100a25:	e8 98 ff ff ff       	call   1009c2 <_ZN6kernel6outputlsEm>
}
  100a2a:	c9                   	leave  
  100a2b:	c3                   	ret    

00100a2c <_ZN6kernel6outputlsEDn>:


output &output::operator << ( nullptr_t p )
{
  100a2c:	55                   	push   %ebp
  100a2d:	89 e5                	mov    %esp,%ebp
  100a2f:	83 ec 28             	sub    $0x28,%esp
	output::fmtflags_t tmpf = this->setf(output::hex_);
  100a32:	c7 44 24 04 02 00 00 	movl   $0x2,0x4(%esp)
  100a39:	00 
  100a3a:	8b 45 08             	mov    0x8(%ebp),%eax
  100a3d:	89 04 24             	mov    %eax,(%esp)
  100a40:	e8 fd fc ff ff       	call   100742 <_ZN6kernel6output4setfEj>
  100a45:	89 45 f4             	mov    %eax,-0xc(%ebp)

	output &tmpo = (*this << static_cast<unsigned long>((uintptr_t)p));
  100a48:	c7 44 24 04 00 00 00 	movl   $0x0,0x4(%esp)
  100a4f:	00 
  100a50:	8b 45 08             	mov    0x8(%ebp),%eax
  100a53:	89 04 24             	mov    %eax,(%esp)
  100a56:	e8 67 ff ff ff       	call   1009c2 <_ZN6kernel6outputlsEm>
  100a5b:	89 45 f0             	mov    %eax,-0x10(%ebp)

	this->setf(tmpf);
  100a5e:	8b 45 f4             	mov    -0xc(%ebp),%eax
  100a61:	89 44 24 04          	mov    %eax,0x4(%esp)
  100a65:	8b 45 08             	mov    0x8(%ebp),%eax
  100a68:	89 04 24             	mov    %eax,(%esp)
  100a6b:	e8 d2 fc ff ff       	call   100742 <_ZN6kernel6output4setfEj>

	return tmpo;
  100a70:	8b 45 f0             	mov    -0x10(%ebp),%eax
}
  100a73:	c9                   	leave  
  100a74:	c3                   	ret    
  100a75:	90                   	nop

00100a76 <_ZN6kernel6outputlsEPv>:

output &output::operator << ( void *p )
{
  100a76:	55                   	push   %ebp
  100a77:	89 e5                	mov    %esp,%ebp
  100a79:	83 ec 28             	sub    $0x28,%esp
	output::fmtflags_t tmpf = this->setf(output::hex_);
  100a7c:	c7 44 24 04 02 00 00 	movl   $0x2,0x4(%esp)
  100a83:	00 
  100a84:	8b 45 08             	mov    0x8(%ebp),%eax
  100a87:	89 04 24             	mov    %eax,(%esp)
  100a8a:	e8 b3 fc ff ff       	call   100742 <_ZN6kernel6output4setfEj>
  100a8f:	89 45 f4             	mov    %eax,-0xc(%ebp)

	output &tmpo = (*this << static_cast<unsigned long>((uintptr_t)p));
  100a92:	8b 45 0c             	mov    0xc(%ebp),%eax
  100a95:	89 44 24 04          	mov    %eax,0x4(%esp)
  100a99:	8b 45 08             	mov    0x8(%ebp),%eax
  100a9c:	89 04 24             	mov    %eax,(%esp)
  100a9f:	e8 1e ff ff ff       	call   1009c2 <_ZN6kernel6outputlsEm>
  100aa4:	89 45 f0             	mov    %eax,-0x10(%ebp)

	this->setf(tmpf);
  100aa7:	8b 45 f4             	mov    -0xc(%ebp),%eax
  100aaa:	89 44 24 04          	mov    %eax,0x4(%esp)
  100aae:	8b 45 08             	mov    0x8(%ebp),%eax
  100ab1:	89 04 24             	mov    %eax,(%esp)
  100ab4:	e8 89 fc ff ff       	call   100742 <_ZN6kernel6output4setfEj>

	return tmpo;
  100ab9:	8b 45 f0             	mov    -0x10(%ebp),%eax
}
  100abc:	c9                   	leave  
  100abd:	c3                   	ret    

00100abe <_ZN6kernel6outputlsEPKc>:

output &output::operator << ( const char *s )
{
  100abe:	55                   	push   %ebp
  100abf:	89 e5                	mov    %esp,%ebp
  100ac1:	83 ec 18             	sub    $0x18,%esp
	this->puts(s);
  100ac4:	8b 45 0c             	mov    0xc(%ebp),%eax
  100ac7:	89 44 24 04          	mov    %eax,0x4(%esp)
  100acb:	8b 45 08             	mov    0x8(%ebp),%eax
  100ace:	89 04 24             	mov    %eax,(%esp)
  100ad1:	e8 e0 fd ff ff       	call   1008b6 <_ZN6kernel6output4putsEPKc>

	return *this;
  100ad6:	8b 45 08             	mov    0x8(%ebp),%eax
}
  100ad9:	c9                   	leave  
  100ada:	c3                   	ret    

00100adb <_Z41__static_initialization_and_destruction_0ii>:
  100adb:	55                   	push   %ebp
  100adc:	89 e5                	mov    %esp,%ebp
  100ade:	83 ec 28             	sub    $0x28,%esp
  100ae1:	83 7d 08 01          	cmpl   $0x1,0x8(%ebp)
  100ae5:	75 24                	jne    100b0b <_Z41__static_initialization_and_destruction_0ii+0x30>
  100ae7:	81 7d 0c ff ff 00 00 	cmpl   $0xffff,0xc(%ebp)
  100aee:	75 1b                	jne    100b0b <_Z41__static_initialization_and_destruction_0ii+0x30>
  *
  *		The standard-output is defined with a function (c++ lambda-function) putting a char to 'screen' or 'seri' (defined in 'hal').
  *		If compiled with 'QEMU_DEBUG' option, the char is also send to the qemu serial port.
  */
#if defined(OUTPUT_SCREEN) && defined(QEMU_DEBUG) 
output kernel::kout = output( []( char c ){ screen.putc(c); io::outb(definitions::qemu_serial, c); } );
  100af0:	8d 45 f7             	lea    -0x9(%ebp),%eax
  100af3:	89 04 24             	mov    %eax,(%esp)
  100af6:	e8 ad fb ff ff       	call   1006a8 <_ZNKUlcE_cvPFvcEEv>
  100afb:	89 44 24 04          	mov    %eax,0x4(%esp)
  100aff:	c7 04 24 50 30 13 00 	movl   $0x133050,(%esp)
  100b06:	e8 d3 fb ff ff       	call   1006de <_ZN6kernel6outputC1EPFvcE>
output &output::operator << ( const char *s )
{
	this->puts(s);

	return *this;
}
  100b0b:	c9                   	leave  
  100b0c:	c3                   	ret    

00100b0d <_GLOBAL__sub_I__ZN6kernel4koutE>:
  100b0d:	55                   	push   %ebp
  100b0e:	89 e5                	mov    %esp,%ebp
  100b10:	83 ec 18             	sub    $0x18,%esp
  100b13:	c7 44 24 04 ff ff 00 	movl   $0xffff,0x4(%esp)
  100b1a:	00 
  100b1b:	c7 04 24 01 00 00 00 	movl   $0x1,(%esp)
  100b22:	e8 b4 ff ff ff       	call   100adb <_Z41__static_initialization_and_destruction_0ii>
  100b27:	c9                   	leave  
  100b28:	c3                   	ret    

00100b29 <__tcf_2>:
	/**
	  * @brief	The process manager
	  */
	class processmgr
	{
		SINGLETON(processmgr)
  100b29:	55                   	push   %ebp
  100b2a:	89 e5                	mov    %esp,%ebp
  100b2c:	83 ec 18             	sub    $0x18,%esp
  100b2f:	c7 04 24 e0 60 13 00 	movl   $0x1360e0,(%esp)
  100b36:	e8 19 ba 00 00       	call   10c554 <_ZN6kernel10processmgrD1Ev>
  100b3b:	c9                   	leave  
  100b3c:	c3                   	ret    

00100b3d <__tcf_3>:
	/**
	  * @brief	The thread manager
	  */
	class threadmgr
	{
		SINGLETON(threadmgr)
  100b3d:	55                   	push   %ebp
  100b3e:	89 e5                	mov    %esp,%ebp
  100b40:	83 ec 18             	sub    $0x18,%esp
  100b43:	c7 04 24 04 61 13 00 	movl   $0x136104,(%esp)
  100b4a:	e8 51 ba 00 00       	call   10c5a0 <_ZN6kernel9threadmgrD1Ev>
  100b4f:	c9                   	leave  
  100b50:	c3                   	ret    

00100b51 <__tcf_4>:
  100b51:	55                   	push   %ebp
  100b52:	89 e5                	mov    %esp,%ebp
  100b54:	83 ec 18             	sub    $0x18,%esp
  100b57:	c7 04 24 60 60 13 00 	movl   $0x136060,(%esp)
  100b5e:	e8 c7 b3 00 00       	call   10bf2a <_ZN6kernel9schedulerD1Ev>
  100b63:	c9                   	leave  
  100b64:	c3                   	ret    

00100b65 <_ZN6kernel7syscall6handleEPN3hal3x863cpu9cpu_stateE>:
#include "include/scheduler.hpp"

#include <cstring>

cpu::cpu_state *kernel::syscall::handle( cpu::cpu_state *cpu )
{
  100b65:	55                   	push   %ebp
  100b66:	89 e5                	mov    %esp,%ebp
  100b68:	57                   	push   %edi
  100b69:	56                   	push   %esi
  100b6a:	53                   	push   %ebx
  100b6b:	81 ec ec 08 00 00    	sub    $0x8ec,%esp
	processmgr &procmgr  = processmgr::instance();
  100b71:	e8 f1 b9 00 00       	call   10c567 <_ZN6kernel10processmgr8instanceEv>
  100b76:	89 45 e4             	mov    %eax,-0x1c(%ebp)
	threadmgr &thrdmgr   = threadmgr::instance();
  100b79:	e8 35 ba 00 00       	call   10c5b3 <_ZN6kernel9threadmgr8instanceEv>
  100b7e:	89 45 e0             	mov    %eax,-0x20(%ebp)
	scheduler &scheduler = scheduler::instance();
  100b81:	e8 b7 b3 00 00       	call   10bf3d <_ZN6kernel9scheduler8instanceEv>
  100b86:	89 45 dc             	mov    %eax,-0x24(%ebp)

	pmm &pmm = pmm::instance();
  100b89:	e8 99 b9 00 00       	call   10c527 <_ZN3hal3x863pmm8instanceEv>
  100b8e:	89 45 d8             	mov    %eax,-0x28(%ebp)
	thread *thrd;

	process::info_t	pinfo;
	thread::info_t  tinfo;

	switch(cpu->syscall_number())
  100b91:	8b 45 08             	mov    0x8(%ebp),%eax
  100b94:	89 04 24             	mov    %eax,(%esp)
  100b97:	e8 7c b9 00 00       	call   10c518 <_ZN3hal3x863cpu9cpu_state14syscall_numberEv>
  100b9c:	8b 00                	mov    (%eax),%eax
  100b9e:	83 f8 22             	cmp    $0x22,%eax
  100ba1:	0f 87 5b 06 00 00    	ja     101202 <_ZN6kernel7syscall6handleEPN3hal3x863cpu9cpu_stateE+0x69d>
  100ba7:	8b 04 85 08 e2 10 00 	mov    0x10e208(,%eax,4),%eax
  100bae:	ff e0                	jmp    *%eax
		case syscall::spawn_elf:

		break;

		case syscall::exit_proc:
			proc = scheduler.running->proc;
  100bb0:	8b 45 dc             	mov    -0x24(%ebp),%eax
  100bb3:	8b 40 14             	mov    0x14(%eax),%eax
  100bb6:	8b 40 18             	mov    0x18(%eax),%eax
  100bb9:	89 45 d4             	mov    %eax,-0x2c(%ebp)

			if(proc)
  100bbc:	83 7d d4 00          	cmpl   $0x0,-0x2c(%ebp)
  100bc0:	74 57                	je     100c19 <_ZN6kernel7syscall6handleEPN3hal3x863cpu9cpu_stateE+0xb4>
			{
				procmgr.remove(proc);
  100bc2:	8b 45 d4             	mov    -0x2c(%ebp),%eax
  100bc5:	89 44 24 04          	mov    %eax,0x4(%esp)
  100bc9:	8b 45 e4             	mov    -0x1c(%ebp),%eax
  100bcc:	89 04 24             	mov    %eax,(%esp)
  100bcf:	e8 6a 0b 00 00       	call   10173e <_ZN6kernel10processmgr6removeEPNS_7processE>

				scheduler.running = nullptr;
  100bd4:	8b 45 dc             	mov    -0x24(%ebp),%eax
  100bd7:	c7 40 14 00 00 00 00 	movl   $0x0,0x14(%eax)

				delete proc;
  100bde:	8b 5d d4             	mov    -0x2c(%ebp),%ebx
  100be1:	85 db                	test   %ebx,%ebx
  100be3:	74 10                	je     100bf5 <_ZN6kernel7syscall6handleEPN3hal3x863cpu9cpu_stateE+0x90>
  100be5:	89 1c 24             	mov    %ebx,(%esp)
  100be8:	e8 7d 09 00 00       	call   10156a <_ZN6kernel7processD1Ev>
  100bed:	89 1c 24             	mov    %ebx,(%esp)
  100bf0:	e8 e1 15 00 00       	call   1021d6 <_ZdlPv>

				cpu = scheduler.schedule(cpu);
  100bf5:	8b 45 08             	mov    0x8(%ebp),%eax
  100bf8:	89 44 24 04          	mov    %eax,0x4(%esp)
  100bfc:	8b 45 dc             	mov    -0x24(%ebp),%eax
  100bff:	89 04 24             	mov    %eax,(%esp)
  100c02:	e8 09 07 00 00       	call   101310 <_ZN6kernel9scheduler8scheduleEPN3hal3x863cpu9cpu_stateE>
  100c07:	89 45 08             	mov    %eax,0x8(%ebp)

				if(!scheduler.running)
  100c0a:	8b 45 dc             	mov    -0x24(%ebp),%eax
  100c0d:	8b 40 14             	mov    0x14(%eax),%eax
  100c10:	85 c0                	test   %eax,%eax
  100c12:	75 05                	jne    100c19 <_ZN6kernel7syscall6handleEPN3hal3x863cpu9cpu_stateE+0xb4>
				{
					cpu::halt();
  100c14:	e8 07 b9 00 00       	call   10c520 <_ZN3hal3x863cpu4haltEv>
			}
			else
			{

			}
		break;
  100c19:	e9 e4 05 00 00       	jmp    101202 <_ZN6kernel7syscall6handleEPN3hal3x863cpu9cpu_stateE+0x69d>

		case syscall::kill_proc:
			proc = procmgr.get(cpu->param1());
  100c1e:	8b 45 08             	mov    0x8(%ebp),%eax
  100c21:	89 04 24             	mov    %eax,(%esp)
  100c24:	e8 d7 b8 00 00       	call   10c500 <_ZN3hal3x863cpu9cpu_state6param1Ev>
  100c29:	8b 00                	mov    (%eax),%eax
  100c2b:	89 44 24 04          	mov    %eax,0x4(%esp)
  100c2f:	8b 45 e4             	mov    -0x1c(%ebp),%eax
  100c32:	89 04 24             	mov    %eax,(%esp)
  100c35:	e8 b0 0b 00 00       	call   1017ea <_ZN6kernel10processmgr3getEj>
  100c3a:	89 45 d4             	mov    %eax,-0x2c(%ebp)
		
			if(proc && proc != scheduler.running->proc)
  100c3d:	83 7d d4 00          	cmpl   $0x0,-0x2c(%ebp)
  100c41:	74 4d                	je     100c90 <_ZN6kernel7syscall6handleEPN3hal3x863cpu9cpu_stateE+0x12b>
  100c43:	8b 45 dc             	mov    -0x24(%ebp),%eax
  100c46:	8b 40 14             	mov    0x14(%eax),%eax
  100c49:	8b 40 18             	mov    0x18(%eax),%eax
  100c4c:	3b 45 d4             	cmp    -0x2c(%ebp),%eax
  100c4f:	74 3f                	je     100c90 <_ZN6kernel7syscall6handleEPN3hal3x863cpu9cpu_stateE+0x12b>
			{
				procmgr.remove(proc);
  100c51:	8b 45 d4             	mov    -0x2c(%ebp),%eax
  100c54:	89 44 24 04          	mov    %eax,0x4(%esp)
  100c58:	8b 45 e4             	mov    -0x1c(%ebp),%eax
  100c5b:	89 04 24             	mov    %eax,(%esp)
  100c5e:	e8 db 0a 00 00       	call   10173e <_ZN6kernel10processmgr6removeEPNS_7processE>

				delete proc;
  100c63:	8b 5d d4             	mov    -0x2c(%ebp),%ebx
  100c66:	85 db                	test   %ebx,%ebx
  100c68:	74 10                	je     100c7a <_ZN6kernel7syscall6handleEPN3hal3x863cpu9cpu_stateE+0x115>
  100c6a:	89 1c 24             	mov    %ebx,(%esp)
  100c6d:	e8 f8 08 00 00       	call   10156a <_ZN6kernel7processD1Ev>
  100c72:	89 1c 24             	mov    %ebx,(%esp)
  100c75:	e8 5c 15 00 00       	call   1021d6 <_ZdlPv>

				cpu->param0() = 0;
  100c7a:	8b 45 08             	mov    0x8(%ebp),%eax
  100c7d:	89 04 24             	mov    %eax,(%esp)
  100c80:	e8 73 b8 00 00       	call   10c4f8 <_ZN3hal3x863cpu9cpu_state6param0Ev>
  100c85:	c7 00 00 00 00 00    	movl   $0x0,(%eax)
			}
			else
			{
				cpu->param0() = 1;	
			}
		break;
  100c8b:	e9 72 05 00 00       	jmp    101202 <_ZN6kernel7syscall6handleEPN3hal3x863cpu9cpu_stateE+0x69d>

				cpu->param0() = 0;
			}
			else
			{
				cpu->param0() = 1;	
  100c90:	8b 45 08             	mov    0x8(%ebp),%eax
  100c93:	89 04 24             	mov    %eax,(%esp)
  100c96:	e8 5d b8 00 00       	call   10c4f8 <_ZN3hal3x863cpu9cpu_state6param0Ev>
  100c9b:	c7 00 01 00 00 00    	movl   $0x1,(%eax)
			}
		break;
  100ca1:	e9 5c 05 00 00       	jmp    101202 <_ZN6kernel7syscall6handleEPN3hal3x863cpu9cpu_stateE+0x69d>

		case syscall::proc_info:
			proc = scheduler.running->proc;
  100ca6:	8b 45 dc             	mov    -0x24(%ebp),%eax
  100ca9:	8b 40 14             	mov    0x14(%eax),%eax
  100cac:	8b 40 18             	mov    0x18(%eax),%eax
  100caf:	89 45 d4             	mov    %eax,-0x2c(%ebp)

			if(proc && (process::info_t*)cpu->param1() != nullptr)
  100cb2:	83 7d d4 00          	cmpl   $0x0,-0x2c(%ebp)
  100cb6:	74 18                	je     100cd0 <_ZN6kernel7syscall6handleEPN3hal3x863cpu9cpu_stateE+0x16b>
  100cb8:	8b 45 08             	mov    0x8(%ebp),%eax
  100cbb:	89 04 24             	mov    %eax,(%esp)
  100cbe:	e8 3d b8 00 00       	call   10c500 <_ZN3hal3x863cpu9cpu_state6param1Ev>
  100cc3:	8b 00                	mov    (%eax),%eax
  100cc5:	85 c0                	test   %eax,%eax
  100cc7:	74 07                	je     100cd0 <_ZN6kernel7syscall6handleEPN3hal3x863cpu9cpu_stateE+0x16b>
  100cc9:	b8 01 00 00 00       	mov    $0x1,%eax
  100cce:	eb 05                	jmp    100cd5 <_ZN6kernel7syscall6handleEPN3hal3x863cpu9cpu_stateE+0x170>
  100cd0:	b8 00 00 00 00       	mov    $0x0,%eax
  100cd5:	84 c0                	test   %al,%al
  100cd7:	0f 84 c7 00 00 00    	je     100da4 <_ZN6kernel7syscall6handleEPN3hal3x863cpu9cpu_stateE+0x23f>
			{
				pinfo = proc->info();
  100cdd:	8d 85 18 f7 ff ff    	lea    -0x8e8(%ebp),%eax
  100ce3:	8b 55 d4             	mov    -0x2c(%ebp),%edx
  100ce6:	89 54 24 04          	mov    %edx,0x4(%esp)
  100cea:	89 04 24             	mov    %eax,(%esp)
  100ced:	e8 84 09 00 00       	call   101676 <_ZN6kernel7process4infoEv>
  100cf2:	83 ec 04             	sub    $0x4,%esp
  100cf5:	8d 95 6c fb ff ff    	lea    -0x494(%ebp),%edx
  100cfb:	8d 9d 18 f7 ff ff    	lea    -0x8e8(%ebp),%ebx
  100d01:	b8 12 01 00 00       	mov    $0x112,%eax
  100d06:	89 d7                	mov    %edx,%edi
  100d08:	89 de                	mov    %ebx,%esi
  100d0a:	89 c1                	mov    %eax,%ecx
  100d0c:	f3 a5                	rep movsl %ds:(%esi),%es:(%edi)

				((process::info_t*)(cpu->param1()))->id	    = pinfo.id;
  100d0e:	8b 45 08             	mov    0x8(%ebp),%eax
  100d11:	89 04 24             	mov    %eax,(%esp)
  100d14:	e8 e7 b7 00 00       	call   10c500 <_ZN3hal3x863cpu9cpu_state6param1Ev>
  100d19:	8b 00                	mov    (%eax),%eax
  100d1b:	8b 95 6c fb ff ff    	mov    -0x494(%ebp),%edx
  100d21:	89 10                	mov    %edx,(%eax)
				((process::info_t*)(cpu->param1()))->parent = pinfo.parent;
  100d23:	8b 45 08             	mov    0x8(%ebp),%eax
  100d26:	89 04 24             	mov    %eax,(%esp)
  100d29:	e8 d2 b7 00 00       	call   10c500 <_ZN3hal3x863cpu9cpu_state6param1Ev>
  100d2e:	8b 00                	mov    (%eax),%eax
  100d30:	8b 95 70 fb ff ff    	mov    -0x490(%ebp),%edx
  100d36:	89 50 04             	mov    %edx,0x4(%eax)

				strcpy(((process::info_t*)(cpu->param1()))->name, pinfo.name);
  100d39:	8b 45 08             	mov    0x8(%ebp),%eax
  100d3c:	89 04 24             	mov    %eax,(%esp)
  100d3f:	e8 bc b7 00 00       	call   10c500 <_ZN3hal3x863cpu9cpu_state6param1Ev>
  100d44:	8b 00                	mov    (%eax),%eax
  100d46:	83 c0 08             	add    $0x8,%eax
  100d49:	8d 95 6c fb ff ff    	lea    -0x494(%ebp),%edx
  100d4f:	83 c2 08             	add    $0x8,%edx
  100d52:	89 54 24 04          	mov    %edx,0x4(%esp)
  100d56:	89 04 24             	mov    %eax,(%esp)
  100d59:	e8 b4 8d 00 00       	call   109b12 <strcpy>
				strcpy(((process::info_t*)(cpu->param1()))->cmdline, pinfo.cmdline);
  100d5e:	8b 45 08             	mov    0x8(%ebp),%eax
  100d61:	89 04 24             	mov    %eax,(%esp)
  100d64:	e8 97 b7 00 00       	call   10c500 <_ZN3hal3x863cpu9cpu_state6param1Ev>
  100d69:	8b 00                	mov    (%eax),%eax
  100d6b:	83 c0 48             	add    $0x48,%eax
  100d6e:	8d 95 6c fb ff ff    	lea    -0x494(%ebp),%edx
  100d74:	83 c2 48             	add    $0x48,%edx
  100d77:	89 54 24 04          	mov    %edx,0x4(%esp)
  100d7b:	89 04 24             	mov    %eax,(%esp)
  100d7e:	e8 8f 8d 00 00       	call   109b12 <strcpy>

				cpu->param0() = cpu->param1();
  100d83:	8b 45 08             	mov    0x8(%ebp),%eax
  100d86:	89 04 24             	mov    %eax,(%esp)
  100d89:	e8 6a b7 00 00       	call   10c4f8 <_ZN3hal3x863cpu9cpu_state6param0Ev>
  100d8e:	89 c3                	mov    %eax,%ebx
  100d90:	8b 45 08             	mov    0x8(%ebp),%eax
  100d93:	89 04 24             	mov    %eax,(%esp)
  100d96:	e8 65 b7 00 00       	call   10c500 <_ZN3hal3x863cpu9cpu_state6param1Ev>
  100d9b:	8b 00                	mov    (%eax),%eax
  100d9d:	89 03                	mov    %eax,(%ebx)
			}
			else
			{
				cpu->param0() = 0x0;
			}
		break;
  100d9f:	e9 5e 04 00 00       	jmp    101202 <_ZN6kernel7syscall6handleEPN3hal3x863cpu9cpu_stateE+0x69d>

				cpu->param0() = cpu->param1();
			}
			else
			{
				cpu->param0() = 0x0;
  100da4:	8b 45 08             	mov    0x8(%ebp),%eax
  100da7:	89 04 24             	mov    %eax,(%esp)
  100daa:	e8 49 b7 00 00       	call   10c4f8 <_ZN3hal3x863cpu9cpu_state6param0Ev>
  100daf:	c7 00 00 00 00 00    	movl   $0x0,(%eax)
			}
		break;
  100db5:	e9 48 04 00 00       	jmp    101202 <_ZN6kernel7syscall6handleEPN3hal3x863cpu9cpu_stateE+0x69d>

		case syscall::create_thread:
			proc = scheduler.running->proc;
  100dba:	8b 45 dc             	mov    -0x24(%ebp),%eax
  100dbd:	8b 40 14             	mov    0x14(%eax),%eax
  100dc0:	8b 40 18             	mov    0x18(%eax),%eax
  100dc3:	89 45 d4             	mov    %eax,-0x2c(%ebp)

			thrd = new thread(proc, (uintptr_t)cpu->param1(), (size_t)cpu->param2());
  100dc6:	8b 45 08             	mov    0x8(%ebp),%eax
  100dc9:	89 04 24             	mov    %eax,(%esp)
  100dcc:	e8 2f b7 00 00       	call   10c500 <_ZN3hal3x863cpu9cpu_state6param1Ev>
  100dd1:	8b 30                	mov    (%eax),%esi
  100dd3:	8b 45 08             	mov    0x8(%ebp),%eax
  100dd6:	89 04 24             	mov    %eax,(%esp)
  100dd9:	e8 2e b7 00 00       	call   10c50c <_ZN3hal3x863cpu9cpu_state6param2Ev>
  100dde:	8b 38                	mov    (%eax),%edi
  100de0:	c7 04 24 1c 00 00 00 	movl   $0x1c,(%esp)
  100de7:	e8 b4 13 00 00       	call   1021a0 <_Znwj>
  100dec:	89 c3                	mov    %eax,%ebx
  100dee:	89 7c 24 0c          	mov    %edi,0xc(%esp)
  100df2:	89 74 24 08          	mov    %esi,0x8(%esp)
  100df6:	8b 45 d4             	mov    -0x2c(%ebp),%eax
  100df9:	89 44 24 04          	mov    %eax,0x4(%esp)
  100dfd:	89 1c 24             	mov    %ebx,(%esp)
  100e00:	e8 45 f3 ff ff       	call   10014a <_ZN6kernel6threadC1EPNS_7processEjj>
  100e05:	89 5d d0             	mov    %ebx,-0x30(%ebp)

			if(thrd)
  100e08:	83 7d d0 00          	cmpl   $0x0,-0x30(%ebp)
  100e0c:	74 3a                	je     100e48 <_ZN6kernel7syscall6handleEPN3hal3x863cpu9cpu_stateE+0x2e3>
			{
				scheduler.add(thrd);
  100e0e:	8b 45 d0             	mov    -0x30(%ebp),%eax
  100e11:	89 44 24 04          	mov    %eax,0x4(%esp)
  100e15:	8b 45 dc             	mov    -0x24(%ebp),%eax
  100e18:	89 04 24             	mov    %eax,(%esp)
  100e1b:	e8 2a 04 00 00       	call   10124a <_ZN6kernel9scheduler3addEPNS_6threadE>
				thrdmgr.add(thrd);
  100e20:	8b 45 d0             	mov    -0x30(%ebp),%eax
  100e23:	89 44 24 04          	mov    %eax,0x4(%esp)
  100e27:	8b 45 e0             	mov    -0x20(%ebp),%eax
  100e2a:	89 04 24             	mov    %eax,(%esp)
  100e2d:	e8 c2 f5 ff ff       	call   1003f4 <_ZN6kernel9threadmgr3addEPNS_6threadE>

				cpu->param0() = 0;
  100e32:	8b 45 08             	mov    0x8(%ebp),%eax
  100e35:	89 04 24             	mov    %eax,(%esp)
  100e38:	e8 bb b6 00 00       	call   10c4f8 <_ZN3hal3x863cpu9cpu_state6param0Ev>
  100e3d:	c7 00 00 00 00 00    	movl   $0x0,(%eax)
			}
			else
			{
				cpu->param0() = 1;
			}
		break;
  100e43:	e9 ba 03 00 00       	jmp    101202 <_ZN6kernel7syscall6handleEPN3hal3x863cpu9cpu_stateE+0x69d>

				cpu->param0() = 0;
			}
			else
			{
				cpu->param0() = 1;
  100e48:	8b 45 08             	mov    0x8(%ebp),%eax
  100e4b:	89 04 24             	mov    %eax,(%esp)
  100e4e:	e8 a5 b6 00 00       	call   10c4f8 <_ZN3hal3x863cpu9cpu_state6param0Ev>
  100e53:	c7 00 01 00 00 00    	movl   $0x1,(%eax)
			}
		break;
  100e59:	e9 a4 03 00 00       	jmp    101202 <_ZN6kernel7syscall6handleEPN3hal3x863cpu9cpu_stateE+0x69d>

		case syscall::exit_thread:
			thrd = scheduler.running;
  100e5e:	8b 45 dc             	mov    -0x24(%ebp),%eax
  100e61:	8b 40 14             	mov    0x14(%eax),%eax
  100e64:	89 45 d0             	mov    %eax,-0x30(%ebp)

			if(thrd)
  100e67:	83 7d d0 00          	cmpl   $0x0,-0x30(%ebp)
  100e6b:	74 57                	je     100ec4 <_ZN6kernel7syscall6handleEPN3hal3x863cpu9cpu_stateE+0x35f>
			{
				thrdmgr.remove(thrd);
  100e6d:	8b 45 d0             	mov    -0x30(%ebp),%eax
  100e70:	89 44 24 04          	mov    %eax,0x4(%esp)
  100e74:	8b 45 e0             	mov    -0x20(%ebp),%eax
  100e77:	89 04 24             	mov    %eax,(%esp)
  100e7a:	e8 bb f5 ff ff       	call   10043a <_ZN6kernel9threadmgr6removeEPNS_6threadE>

				scheduler.running = nullptr;
  100e7f:	8b 45 dc             	mov    -0x24(%ebp),%eax
  100e82:	c7 40 14 00 00 00 00 	movl   $0x0,0x14(%eax)

				cpu = scheduler.schedule(cpu);
  100e89:	8b 45 08             	mov    0x8(%ebp),%eax
  100e8c:	89 44 24 04          	mov    %eax,0x4(%esp)
  100e90:	8b 45 dc             	mov    -0x24(%ebp),%eax
  100e93:	89 04 24             	mov    %eax,(%esp)
  100e96:	e8 75 04 00 00       	call   101310 <_ZN6kernel9scheduler8scheduleEPN3hal3x863cpu9cpu_stateE>
  100e9b:	89 45 08             	mov    %eax,0x8(%ebp)

				if(!scheduler.running)
  100e9e:	8b 45 dc             	mov    -0x24(%ebp),%eax
  100ea1:	8b 40 14             	mov    0x14(%eax),%eax
  100ea4:	85 c0                	test   %eax,%eax
  100ea6:	75 05                	jne    100ead <_ZN6kernel7syscall6handleEPN3hal3x863cpu9cpu_stateE+0x348>
				{
					cpu::halt();
  100ea8:	e8 73 b6 00 00       	call   10c520 <_ZN3hal3x863cpu4haltEv>
				}

				delete thrd;
  100ead:	8b 5d d0             	mov    -0x30(%ebp),%ebx
  100eb0:	85 db                	test   %ebx,%ebx
  100eb2:	74 10                	je     100ec4 <_ZN6kernel7syscall6handleEPN3hal3x863cpu9cpu_stateE+0x35f>
  100eb4:	89 1c 24             	mov    %ebx,(%esp)
  100eb7:	e8 c6 f3 ff ff       	call   100282 <_ZN6kernel6threadD1Ev>
  100ebc:	89 1c 24             	mov    %ebx,(%esp)
  100ebf:	e8 12 13 00 00       	call   1021d6 <_ZdlPv>
			}
			else
			{

			}
		break;
  100ec4:	e9 39 03 00 00       	jmp    101202 <_ZN6kernel7syscall6handleEPN3hal3x863cpu9cpu_stateE+0x69d>

		case syscall::kill_thread:
			thrd = thrdmgr.get(cpu->param1());
  100ec9:	8b 45 08             	mov    0x8(%ebp),%eax
  100ecc:	89 04 24             	mov    %eax,(%esp)
  100ecf:	e8 2c b6 00 00       	call   10c500 <_ZN3hal3x863cpu9cpu_state6param1Ev>
  100ed4:	8b 00                	mov    (%eax),%eax
  100ed6:	89 44 24 04          	mov    %eax,0x4(%esp)
  100eda:	8b 45 e0             	mov    -0x20(%ebp),%eax
  100edd:	89 04 24             	mov    %eax,(%esp)
  100ee0:	e8 01 f6 ff ff       	call   1004e6 <_ZN6kernel9threadmgr3getEj>
  100ee5:	89 45 d0             	mov    %eax,-0x30(%ebp)
			
			if(thrd && thrd != scheduler.running)
  100ee8:	83 7d d0 00          	cmpl   $0x0,-0x30(%ebp)
  100eec:	74 5c                	je     100f4a <_ZN6kernel7syscall6handleEPN3hal3x863cpu9cpu_stateE+0x3e5>
  100eee:	8b 45 dc             	mov    -0x24(%ebp),%eax
  100ef1:	8b 40 14             	mov    0x14(%eax),%eax
  100ef4:	3b 45 d0             	cmp    -0x30(%ebp),%eax
  100ef7:	74 51                	je     100f4a <_ZN6kernel7syscall6handleEPN3hal3x863cpu9cpu_stateE+0x3e5>
			{
				scheduler.remove(thrd);
  100ef9:	8b 45 d0             	mov    -0x30(%ebp),%eax
  100efc:	89 44 24 04          	mov    %eax,0x4(%esp)
  100f00:	8b 45 dc             	mov    -0x24(%ebp),%eax
  100f03:	89 04 24             	mov    %eax,(%esp)
  100f06:	e8 59 03 00 00       	call   101264 <_ZN6kernel9scheduler6removeEPNS_6threadE>
				thrdmgr.remove(thrd);
  100f0b:	8b 45 d0             	mov    -0x30(%ebp),%eax
  100f0e:	89 44 24 04          	mov    %eax,0x4(%esp)
  100f12:	8b 45 e0             	mov    -0x20(%ebp),%eax
  100f15:	89 04 24             	mov    %eax,(%esp)
  100f18:	e8 1d f5 ff ff       	call   10043a <_ZN6kernel9threadmgr6removeEPNS_6threadE>

				delete thrd;
  100f1d:	8b 5d d0             	mov    -0x30(%ebp),%ebx
  100f20:	85 db                	test   %ebx,%ebx
  100f22:	74 10                	je     100f34 <_ZN6kernel7syscall6handleEPN3hal3x863cpu9cpu_stateE+0x3cf>
  100f24:	89 1c 24             	mov    %ebx,(%esp)
  100f27:	e8 56 f3 ff ff       	call   100282 <_ZN6kernel6threadD1Ev>
  100f2c:	89 1c 24             	mov    %ebx,(%esp)
  100f2f:	e8 a2 12 00 00       	call   1021d6 <_ZdlPv>

				cpu->param0() = 0;
  100f34:	8b 45 08             	mov    0x8(%ebp),%eax
  100f37:	89 04 24             	mov    %eax,(%esp)
  100f3a:	e8 b9 b5 00 00       	call   10c4f8 <_ZN3hal3x863cpu9cpu_state6param0Ev>
  100f3f:	c7 00 00 00 00 00    	movl   $0x0,(%eax)
  100f45:	e9 80 00 00 00       	jmp    100fca <_ZN6kernel7syscall6handleEPN3hal3x863cpu9cpu_stateE+0x465>
			}
			else if(thrd && thrd == scheduler.running)
  100f4a:	83 7d d0 00          	cmpl   $0x0,-0x30(%ebp)
  100f4e:	74 64                	je     100fb4 <_ZN6kernel7syscall6handleEPN3hal3x863cpu9cpu_stateE+0x44f>
  100f50:	8b 45 dc             	mov    -0x24(%ebp),%eax
  100f53:	8b 40 14             	mov    0x14(%eax),%eax
  100f56:	3b 45 d0             	cmp    -0x30(%ebp),%eax
  100f59:	75 59                	jne    100fb4 <_ZN6kernel7syscall6handleEPN3hal3x863cpu9cpu_stateE+0x44f>
			{
				thrdmgr.remove(thrd);
  100f5b:	8b 45 d0             	mov    -0x30(%ebp),%eax
  100f5e:	89 44 24 04          	mov    %eax,0x4(%esp)
  100f62:	8b 45 e0             	mov    -0x20(%ebp),%eax
  100f65:	89 04 24             	mov    %eax,(%esp)
  100f68:	e8 cd f4 ff ff       	call   10043a <_ZN6kernel9threadmgr6removeEPNS_6threadE>

				scheduler.running = nullptr;
  100f6d:	8b 45 dc             	mov    -0x24(%ebp),%eax
  100f70:	c7 40 14 00 00 00 00 	movl   $0x0,0x14(%eax)

				cpu = scheduler.schedule(cpu);
  100f77:	8b 45 08             	mov    0x8(%ebp),%eax
  100f7a:	89 44 24 04          	mov    %eax,0x4(%esp)
  100f7e:	8b 45 dc             	mov    -0x24(%ebp),%eax
  100f81:	89 04 24             	mov    %eax,(%esp)
  100f84:	e8 87 03 00 00       	call   101310 <_ZN6kernel9scheduler8scheduleEPN3hal3x863cpu9cpu_stateE>
  100f89:	89 45 08             	mov    %eax,0x8(%ebp)

				if(!scheduler.running)
  100f8c:	8b 45 dc             	mov    -0x24(%ebp),%eax
  100f8f:	8b 40 14             	mov    0x14(%eax),%eax
  100f92:	85 c0                	test   %eax,%eax
  100f94:	75 05                	jne    100f9b <_ZN6kernel7syscall6handleEPN3hal3x863cpu9cpu_stateE+0x436>
				{
					cpu::halt();
  100f96:	e8 85 b5 00 00       	call   10c520 <_ZN3hal3x863cpu4haltEv>
				}

				delete thrd;
  100f9b:	8b 5d d0             	mov    -0x30(%ebp),%ebx
  100f9e:	85 db                	test   %ebx,%ebx
  100fa0:	74 10                	je     100fb2 <_ZN6kernel7syscall6handleEPN3hal3x863cpu9cpu_stateE+0x44d>
  100fa2:	89 1c 24             	mov    %ebx,(%esp)
  100fa5:	e8 d8 f2 ff ff       	call   100282 <_ZN6kernel6threadD1Ev>
  100faa:	89 1c 24             	mov    %ebx,(%esp)
  100fad:	e8 24 12 00 00       	call   1021d6 <_ZdlPv>
  100fb2:	eb 16                	jmp    100fca <_ZN6kernel7syscall6handleEPN3hal3x863cpu9cpu_stateE+0x465>
			}
			else
			{
				cpu->param0() = 1;	
  100fb4:	8b 45 08             	mov    0x8(%ebp),%eax
  100fb7:	89 04 24             	mov    %eax,(%esp)
  100fba:	e8 39 b5 00 00       	call   10c4f8 <_ZN3hal3x863cpu9cpu_state6param0Ev>
  100fbf:	c7 00 01 00 00 00    	movl   $0x1,(%eax)
			}
		break;
  100fc5:	e9 38 02 00 00       	jmp    101202 <_ZN6kernel7syscall6handleEPN3hal3x863cpu9cpu_stateE+0x69d>
  100fca:	e9 33 02 00 00       	jmp    101202 <_ZN6kernel7syscall6handleEPN3hal3x863cpu9cpu_stateE+0x69d>
		case wake_thread:

		break;

		case thread_info:
			thrd = scheduler.running;
  100fcf:	8b 45 dc             	mov    -0x24(%ebp),%eax
  100fd2:	8b 40 14             	mov    0x14(%eax),%eax
  100fd5:	89 45 d0             	mov    %eax,-0x30(%ebp)

			if(thrd && (thread::info_t*)cpu->param1() != nullptr)
  100fd8:	83 7d d0 00          	cmpl   $0x0,-0x30(%ebp)
  100fdc:	74 18                	je     100ff6 <_ZN6kernel7syscall6handleEPN3hal3x863cpu9cpu_stateE+0x491>
  100fde:	8b 45 08             	mov    0x8(%ebp),%eax
  100fe1:	89 04 24             	mov    %eax,(%esp)
  100fe4:	e8 17 b5 00 00       	call   10c500 <_ZN3hal3x863cpu9cpu_state6param1Ev>
  100fe9:	8b 00                	mov    (%eax),%eax
  100feb:	85 c0                	test   %eax,%eax
  100fed:	74 07                	je     100ff6 <_ZN6kernel7syscall6handleEPN3hal3x863cpu9cpu_stateE+0x491>
  100fef:	b8 01 00 00 00       	mov    $0x1,%eax
  100ff4:	eb 05                	jmp    100ffb <_ZN6kernel7syscall6handleEPN3hal3x863cpu9cpu_stateE+0x496>
  100ff6:	b8 00 00 00 00       	mov    $0x0,%eax
  100ffb:	84 c0                	test   %al,%al
  100ffd:	0f 84 8c 00 00 00    	je     10108f <_ZN6kernel7syscall6handleEPN3hal3x863cpu9cpu_stateE+0x52a>
			{
				tinfo = thrd->info();
  101003:	8d 85 18 f7 ff ff    	lea    -0x8e8(%ebp),%eax
  101009:	8b 55 d0             	mov    -0x30(%ebp),%edx
  10100c:	89 54 24 04          	mov    %edx,0x4(%esp)
  101010:	89 04 24             	mov    %eax,(%esp)
  101013:	e8 66 f3 ff ff       	call   10037e <_ZN6kernel6thread4infoEv>
  101018:	83 ec 04             	sub    $0x4,%esp
  10101b:	8b 85 18 f7 ff ff    	mov    -0x8e8(%ebp),%eax
  101021:	89 45 b4             	mov    %eax,-0x4c(%ebp)
  101024:	8b 85 1c f7 ff ff    	mov    -0x8e4(%ebp),%eax
  10102a:	89 45 b8             	mov    %eax,-0x48(%ebp)
  10102d:	8b 85 20 f7 ff ff    	mov    -0x8e0(%ebp),%eax
  101033:	89 45 bc             	mov    %eax,-0x44(%ebp)

				((thread::info_t*)(cpu->param1()))->id	  = tinfo.id;
  101036:	8b 45 08             	mov    0x8(%ebp),%eax
  101039:	89 04 24             	mov    %eax,(%esp)
  10103c:	e8 bf b4 00 00       	call   10c500 <_ZN3hal3x863cpu9cpu_state6param1Ev>
  101041:	8b 00                	mov    (%eax),%eax
  101043:	8b 55 b4             	mov    -0x4c(%ebp),%edx
  101046:	89 10                	mov    %edx,(%eax)
				((thread::info_t*)(cpu->param1()))->state = tinfo.state;
  101048:	8b 45 08             	mov    0x8(%ebp),%eax
  10104b:	89 04 24             	mov    %eax,(%esp)
  10104e:	e8 ad b4 00 00       	call   10c500 <_ZN3hal3x863cpu9cpu_state6param1Ev>
  101053:	8b 00                	mov    (%eax),%eax
  101055:	8b 55 b8             	mov    -0x48(%ebp),%edx
  101058:	89 50 04             	mov    %edx,0x4(%eax)
				((thread::info_t*)(cpu->param1()))->flags = tinfo.flags;
  10105b:	8b 45 08             	mov    0x8(%ebp),%eax
  10105e:	89 04 24             	mov    %eax,(%esp)
  101061:	e8 9a b4 00 00       	call   10c500 <_ZN3hal3x863cpu9cpu_state6param1Ev>
  101066:	8b 00                	mov    (%eax),%eax
  101068:	8b 55 bc             	mov    -0x44(%ebp),%edx
  10106b:	89 50 08             	mov    %edx,0x8(%eax)

				cpu->param0() = cpu->param1();
  10106e:	8b 45 08             	mov    0x8(%ebp),%eax
  101071:	89 04 24             	mov    %eax,(%esp)
  101074:	e8 7f b4 00 00       	call   10c4f8 <_ZN3hal3x863cpu9cpu_state6param0Ev>
  101079:	89 c3                	mov    %eax,%ebx
  10107b:	8b 45 08             	mov    0x8(%ebp),%eax
  10107e:	89 04 24             	mov    %eax,(%esp)
  101081:	e8 7a b4 00 00       	call   10c500 <_ZN3hal3x863cpu9cpu_state6param1Ev>
  101086:	8b 00                	mov    (%eax),%eax
  101088:	89 03                	mov    %eax,(%ebx)
			}
			else
			{
				cpu->param0() = 0x0;
			}
		break;
  10108a:	e9 73 01 00 00       	jmp    101202 <_ZN6kernel7syscall6handleEPN3hal3x863cpu9cpu_stateE+0x69d>

				cpu->param0() = cpu->param1();
			}
			else
			{
				cpu->param0() = 0x0;
  10108f:	8b 45 08             	mov    0x8(%ebp),%eax
  101092:	89 04 24             	mov    %eax,(%esp)
  101095:	e8 5e b4 00 00       	call   10c4f8 <_ZN3hal3x863cpu9cpu_state6param0Ev>
  10109a:	c7 00 00 00 00 00    	movl   $0x0,(%eax)
			}
		break;
  1010a0:	e9 5d 01 00 00       	jmp    101202 <_ZN6kernel7syscall6handleEPN3hal3x863cpu9cpu_stateE+0x69d>

		

		case memory_alloc:
			proc = scheduler.running->proc;
  1010a5:	8b 45 dc             	mov    -0x24(%ebp),%eax
  1010a8:	8b 40 14             	mov    0x14(%eax),%eax
  1010ab:	8b 40 18             	mov    0x18(%eax),%eax
  1010ae:	89 45 d4             	mov    %eax,-0x2c(%ebp)

			if(proc)
  1010b1:	83 7d d4 00          	cmpl   $0x0,-0x2c(%ebp)
  1010b5:	74 48                	je     1010ff <_ZN6kernel7syscall6handleEPN3hal3x863cpu9cpu_stateE+0x59a>
			{
				cpu->param0() = proc->memmgr->alloc(vmm::present | vmm::write | vmm::user, bytes_to_pages(cpu->param1()));
  1010b7:	8b 45 08             	mov    0x8(%ebp),%eax
  1010ba:	89 04 24             	mov    %eax,(%esp)
  1010bd:	e8 36 b4 00 00       	call   10c4f8 <_ZN3hal3x863cpu9cpu_state6param0Ev>
  1010c2:	89 c3                	mov    %eax,%ebx
  1010c4:	8b 45 08             	mov    0x8(%ebp),%eax
  1010c7:	89 04 24             	mov    %eax,(%esp)
  1010ca:	e8 31 b4 00 00       	call   10c500 <_ZN3hal3x863cpu9cpu_state6param1Ev>
  1010cf:	8b 00                	mov    (%eax),%eax
  1010d1:	05 ff 0f 00 00       	add    $0xfff,%eax
  1010d6:	c1 e8 0c             	shr    $0xc,%eax
  1010d9:	89 c2                	mov    %eax,%edx
  1010db:	8b 45 d4             	mov    -0x2c(%ebp),%eax
  1010de:	8b 80 50 04 00 00    	mov    0x450(%eax),%eax
  1010e4:	89 54 24 08          	mov    %edx,0x8(%esp)
  1010e8:	c7 44 24 04 07 00 00 	movl   $0x7,0x4(%esp)
  1010ef:	00 
  1010f0:	89 04 24             	mov    %eax,(%esp)
  1010f3:	e8 ae 35 00 00       	call   1046a6 <_ZN3hal3x863vmm5allocEjj>
  1010f8:	89 03                	mov    %eax,(%ebx)
			}
			else
			{
				cpu->param0() = 0x0;
			}
		break;
  1010fa:	e9 03 01 00 00       	jmp    101202 <_ZN6kernel7syscall6handleEPN3hal3x863cpu9cpu_stateE+0x69d>
			{
				cpu->param0() = proc->memmgr->alloc(vmm::present | vmm::write | vmm::user, bytes_to_pages(cpu->param1()));
			}
			else
			{
				cpu->param0() = 0x0;
  1010ff:	8b 45 08             	mov    0x8(%ebp),%eax
  101102:	89 04 24             	mov    %eax,(%esp)
  101105:	e8 ee b3 00 00       	call   10c4f8 <_ZN3hal3x863cpu9cpu_state6param0Ev>
  10110a:	c7 00 00 00 00 00    	movl   $0x0,(%eax)
			}
		break;
  101110:	e9 ed 00 00 00       	jmp    101202 <_ZN6kernel7syscall6handleEPN3hal3x863cpu9cpu_stateE+0x69d>

		case memory_free:
			proc = scheduler.running->proc;
  101115:	8b 45 dc             	mov    -0x24(%ebp),%eax
  101118:	8b 40 14             	mov    0x14(%eax),%eax
  10111b:	8b 40 18             	mov    0x18(%eax),%eax
  10111e:	89 45 d4             	mov    %eax,-0x2c(%ebp)

			if(proc)
  101121:	83 7d d4 00          	cmpl   $0x0,-0x2c(%ebp)
  101125:	74 3d                	je     101164 <_ZN6kernel7syscall6handleEPN3hal3x863cpu9cpu_stateE+0x5ff>
			{
				proc->memmgr->free(cpu->param1(), bytes_to_pages(cpu->param2()));
  101127:	8b 45 08             	mov    0x8(%ebp),%eax
  10112a:	89 04 24             	mov    %eax,(%esp)
  10112d:	e8 da b3 00 00       	call   10c50c <_ZN3hal3x863cpu9cpu_state6param2Ev>
  101132:	8b 00                	mov    (%eax),%eax
  101134:	05 ff 0f 00 00       	add    $0xfff,%eax
  101139:	c1 e8 0c             	shr    $0xc,%eax
  10113c:	89 c3                	mov    %eax,%ebx
  10113e:	8b 45 08             	mov    0x8(%ebp),%eax
  101141:	89 04 24             	mov    %eax,(%esp)
  101144:	e8 b7 b3 00 00       	call   10c500 <_ZN3hal3x863cpu9cpu_state6param1Ev>
  101149:	8b 10                	mov    (%eax),%edx
  10114b:	8b 45 d4             	mov    -0x2c(%ebp),%eax
  10114e:	8b 80 50 04 00 00    	mov    0x450(%eax),%eax
  101154:	89 5c 24 08          	mov    %ebx,0x8(%esp)
  101158:	89 54 24 04          	mov    %edx,0x4(%esp)
  10115c:	89 04 24             	mov    %eax,(%esp)
  10115f:	e8 2a 38 00 00       	call   10498e <_ZN3hal3x863vmm4freeEjj>
			}
			else
			{

			}
		break;
  101164:	e9 99 00 00 00       	jmp    101202 <_ZN6kernel7syscall6handleEPN3hal3x863cpu9cpu_stateE+0x69d>

		case memory_info:
			if((pmm::meminfo_t*)cpu->param1() != nullptr)
  101169:	8b 45 08             	mov    0x8(%ebp),%eax
  10116c:	89 04 24             	mov    %eax,(%esp)
  10116f:	e8 8c b3 00 00       	call   10c500 <_ZN3hal3x863cpu9cpu_state6param1Ev>
  101174:	8b 00                	mov    (%eax),%eax
  101176:	85 c0                	test   %eax,%eax
  101178:	0f 95 c0             	setne  %al
  10117b:	84 c0                	test   %al,%al
  10117d:	74 71                	je     1011f0 <_ZN6kernel7syscall6handleEPN3hal3x863cpu9cpu_stateE+0x68b>
			{
				((pmm::meminfo_t*)(cpu->param1()))->free = pmm.info().free;
  10117f:	8b 45 08             	mov    0x8(%ebp),%eax
  101182:	89 04 24             	mov    %eax,(%esp)
  101185:	e8 76 b3 00 00       	call   10c500 <_ZN3hal3x863cpu9cpu_state6param1Ev>
  10118a:	8b 00                	mov    (%eax),%eax
  10118c:	89 c3                	mov    %eax,%ebx
  10118e:	8d 45 c0             	lea    -0x40(%ebp),%eax
  101191:	8b 55 d8             	mov    -0x28(%ebp),%edx
  101194:	89 54 24 04          	mov    %edx,0x4(%esp)
  101198:	89 04 24             	mov    %eax,(%esp)
  10119b:	e8 dc 7d 00 00       	call   108f7c <_ZN3hal3x863pmm4infoEv>
  1011a0:	83 ec 04             	sub    $0x4,%esp
  1011a3:	8b 45 c0             	mov    -0x40(%ebp),%eax
  1011a6:	89 03                	mov    %eax,(%ebx)
				((pmm::meminfo_t*)(cpu->param1()))->used = pmm.info().used;
  1011a8:	8b 45 08             	mov    0x8(%ebp),%eax
  1011ab:	89 04 24             	mov    %eax,(%esp)
  1011ae:	e8 4d b3 00 00       	call   10c500 <_ZN3hal3x863cpu9cpu_state6param1Ev>
  1011b3:	8b 00                	mov    (%eax),%eax
  1011b5:	89 c3                	mov    %eax,%ebx
  1011b7:	8d 45 c8             	lea    -0x38(%ebp),%eax
  1011ba:	8b 55 d8             	mov    -0x28(%ebp),%edx
  1011bd:	89 54 24 04          	mov    %edx,0x4(%esp)
  1011c1:	89 04 24             	mov    %eax,(%esp)
  1011c4:	e8 b3 7d 00 00       	call   108f7c <_ZN3hal3x863pmm4infoEv>
  1011c9:	83 ec 04             	sub    $0x4,%esp
  1011cc:	8b 45 cc             	mov    -0x34(%ebp),%eax
  1011cf:	89 43 04             	mov    %eax,0x4(%ebx)
	
				cpu->param0() = cpu->param1();
  1011d2:	8b 45 08             	mov    0x8(%ebp),%eax
  1011d5:	89 04 24             	mov    %eax,(%esp)
  1011d8:	e8 1b b3 00 00       	call   10c4f8 <_ZN3hal3x863cpu9cpu_state6param0Ev>
  1011dd:	89 c3                	mov    %eax,%ebx
  1011df:	8b 45 08             	mov    0x8(%ebp),%eax
  1011e2:	89 04 24             	mov    %eax,(%esp)
  1011e5:	e8 16 b3 00 00       	call   10c500 <_ZN3hal3x863cpu9cpu_state6param1Ev>
  1011ea:	8b 00                	mov    (%eax),%eax
  1011ec:	89 03                	mov    %eax,(%ebx)
			}
			else
			{
				cpu->param0() = 0x0;
			}
		break;
  1011ee:	eb 11                	jmp    101201 <_ZN6kernel7syscall6handleEPN3hal3x863cpu9cpu_stateE+0x69c>
	
				cpu->param0() = cpu->param1();
			}
			else
			{
				cpu->param0() = 0x0;
  1011f0:	8b 45 08             	mov    0x8(%ebp),%eax
  1011f3:	89 04 24             	mov    %eax,(%esp)
  1011f6:	e8 fd b2 00 00       	call   10c4f8 <_ZN3hal3x863cpu9cpu_state6param0Ev>
  1011fb:	c7 00 00 00 00 00    	movl   $0x0,(%eax)
			}
		break;
  101201:	90                   	nop
	}

	return cpu;
  101202:	8b 45 08             	mov    0x8(%ebp),%eax
}
  101205:	8d 65 f4             	lea    -0xc(%ebp),%esp
  101208:	5b                   	pop    %ebx
  101209:	5e                   	pop    %esi
  10120a:	5f                   	pop    %edi
  10120b:	5d                   	pop    %ebp
  10120c:	c3                   	ret    
  10120d:	90                   	nop

0010120e <__tcf_0>:
		  *		It also contains the Global Descriptor Table itself.
		  *		This class is implemented as a singleton, so only one instance of this class can be used (it is not possible to set up more than one GDT).
		  */
		class gdt
		{
			SINGLETON(gdt)
  10120e:	55                   	push   %ebp
  10120f:	89 e5                	mov    %esp,%ebp
  101211:	83 ec 18             	sub    $0x18,%esp
  101214:	c7 04 24 40 61 15 00 	movl   $0x156140,(%esp)
  10121b:	e8 2a 7e 00 00       	call   10904a <_ZN3hal3x863gdtD1Ev>
  101220:	c9                   	leave  
  101221:	c3                   	ret    

00101222 <_ZN6kernel9schedulerC1Ev>:
#include "include/scheduler.hpp"
#include "include/memmgr.hpp"

using kernel::scheduler;

scheduler::scheduler(  ) : running(nullptr), cntxt(nullptr)
  101222:	55                   	push   %ebp
  101223:	89 e5                	mov    %esp,%ebp
  101225:	83 ec 18             	sub    $0x18,%esp
  101228:	8b 45 08             	mov    0x8(%ebp),%eax
  10122b:	89 04 24             	mov    %eax,(%esp)
  10122e:	e8 31 b0 00 00       	call   10c264 <_ZN5tools4listIN6kernel6threadEEC1Ev>
  101233:	8b 45 08             	mov    0x8(%ebp),%eax
  101236:	c7 40 14 00 00 00 00 	movl   $0x0,0x14(%eax)
  10123d:	8b 45 08             	mov    0x8(%ebp),%eax
  101240:	c7 40 18 00 00 00 00 	movl   $0x0,0x18(%eax)
{

}
  101247:	c9                   	leave  
  101248:	c3                   	ret    
  101249:	90                   	nop

0010124a <_ZN6kernel9scheduler3addEPNS_6threadE>:

void scheduler::add( kernel::thread *thrd )
{
  10124a:	55                   	push   %ebp
  10124b:	89 e5                	mov    %esp,%ebp
  10124d:	83 ec 18             	sub    $0x18,%esp
	this->ready.push_back(thrd);
  101250:	8b 45 08             	mov    0x8(%ebp),%eax
  101253:	8b 55 0c             	mov    0xc(%ebp),%edx
  101256:	89 54 24 04          	mov    %edx,0x4(%esp)
  10125a:	89 04 24             	mov    %eax,(%esp)
  10125d:	e8 1c af 00 00       	call   10c17e <_ZN5tools4listIN6kernel6threadEE9push_backEPS2_>
}
  101262:	c9                   	leave  
  101263:	c3                   	ret    

00101264 <_ZN6kernel9scheduler6removeEPNS_6threadE>:

void scheduler::remove( kernel::thread *thrd )
{
  101264:	55                   	push   %ebp
  101265:	89 e5                	mov    %esp,%ebp
  101267:	53                   	push   %ebx
  101268:	83 ec 34             	sub    $0x34,%esp
	for(tools::list<thread>::iterator it = this->ready.begin(); it != this->ready.end(); it++)
  10126b:	8b 55 08             	mov    0x8(%ebp),%edx
  10126e:	8d 45 d8             	lea    -0x28(%ebp),%eax
  101271:	89 54 24 04          	mov    %edx,0x4(%esp)
  101275:	89 04 24             	mov    %eax,(%esp)
  101278:	e8 af ad 00 00       	call   10c02c <_ZN5tools4listIN6kernel6threadEE5beginEv>
  10127d:	83 ec 04             	sub    $0x4,%esp
  101280:	eb 55                	jmp    1012d7 <_ZN6kernel9scheduler6removeEPNS_6threadE+0x73>
	{
		if(*it == thrd)
  101282:	8d 45 d8             	lea    -0x28(%ebp),%eax
  101285:	89 04 24             	mov    %eax,(%esp)
  101288:	e8 e9 ad 00 00       	call   10c076 <_ZN5tools4listIN6kernel6threadEE8iteratordeEv>
  10128d:	3b 45 0c             	cmp    0xc(%ebp),%eax
  101290:	0f 94 c0             	sete   %al
  101293:	84 c0                	test   %al,%al
  101295:	74 23                	je     1012ba <_ZN6kernel9scheduler6removeEPNS_6threadE+0x56>
		{
			this->ready.erase(it);	
  101297:	8b 5d 08             	mov    0x8(%ebp),%ebx
  10129a:	8d 4d e0             	lea    -0x20(%ebp),%ecx
  10129d:	8b 45 d8             	mov    -0x28(%ebp),%eax
  1012a0:	8b 55 dc             	mov    -0x24(%ebp),%edx
  1012a3:	89 44 24 08          	mov    %eax,0x8(%esp)
  1012a7:	89 54 24 0c          	mov    %edx,0xc(%esp)
  1012ab:	89 5c 24 04          	mov    %ebx,0x4(%esp)
  1012af:	89 0c 24             	mov    %ecx,(%esp)
  1012b2:	e8 cb ad 00 00       	call   10c082 <_ZN5tools4listIN6kernel6threadEE5eraseENS3_8iteratorE>
  1012b7:	83 ec 04             	sub    $0x4,%esp
	this->ready.push_back(thrd);
}

void scheduler::remove( kernel::thread *thrd )
{
	for(tools::list<thread>::iterator it = this->ready.begin(); it != this->ready.end(); it++)
  1012ba:	8d 45 e8             	lea    -0x18(%ebp),%eax
  1012bd:	c7 44 24 08 00 00 00 	movl   $0x0,0x8(%esp)
  1012c4:	00 
  1012c5:	8d 55 d8             	lea    -0x28(%ebp),%edx
  1012c8:	89 54 24 04          	mov    %edx,0x4(%esp)
  1012cc:	89 04 24             	mov    %eax,(%esp)
  1012cf:	e8 5e af 00 00       	call   10c232 <_ZN5tools4listIN6kernel6threadEE8iteratorppEi>
  1012d4:	83 ec 04             	sub    $0x4,%esp
  1012d7:	8b 55 08             	mov    0x8(%ebp),%edx
  1012da:	8d 45 f0             	lea    -0x10(%ebp),%eax
  1012dd:	89 54 24 04          	mov    %edx,0x4(%esp)
  1012e1:	89 04 24             	mov    %eax,(%esp)
  1012e4:	e8 dd ae 00 00       	call   10c1c6 <_ZN5tools4listIN6kernel6threadEE3endEv>
  1012e9:	83 ec 04             	sub    $0x4,%esp
  1012ec:	8d 45 f0             	lea    -0x10(%ebp),%eax
  1012ef:	89 44 24 04          	mov    %eax,0x4(%esp)
  1012f3:	8d 45 d8             	lea    -0x28(%ebp),%eax
  1012f6:	89 04 24             	mov    %eax,(%esp)
  1012f9:	e8 14 af 00 00       	call   10c212 <_ZN5tools4listIN6kernel6threadEE8iteratorneERKS4_>
  1012fe:	84 c0                	test   %al,%al
  101300:	0f 95 c0             	setne  %al
  101303:	84 c0                	test   %al,%al
  101305:	0f 85 77 ff ff ff    	jne    101282 <_ZN6kernel9scheduler6removeEPNS_6threadE+0x1e>
		if(*it == thrd)
		{
			this->ready.erase(it);	
		}
	}
}
  10130b:	8b 5d fc             	mov    -0x4(%ebp),%ebx
  10130e:	c9                   	leave  
  10130f:	c3                   	ret    

00101310 <_ZN6kernel9scheduler8scheduleEPN3hal3x863cpu9cpu_stateE>:

cpu::cpu_state *scheduler::schedule( cpu::cpu_state *cpu )
{
  101310:	55                   	push   %ebp
  101311:	89 e5                	mov    %esp,%ebp
  101313:	83 ec 28             	sub    $0x28,%esp
	if(!cpu)
  101316:	83 7d 0c 00          	cmpl   $0x0,0xc(%ebp)
  10131a:	75 0a                	jne    101326 <_ZN6kernel9scheduler8scheduleEPN3hal3x863cpu9cpu_stateE+0x16>
	{
		return nullptr;
  10131c:	b8 00 00 00 00       	mov    $0x0,%eax
  101321:	e9 59 01 00 00       	jmp    10147f <_ZN6kernel9scheduler8scheduleEPN3hal3x863cpu9cpu_stateE+0x16f>
	}

	if(!this->ready.front())
  101326:	8b 45 08             	mov    0x8(%ebp),%eax
  101329:	89 04 24             	mov    %eax,(%esp)
  10132c:	e8 f3 b4 00 00       	call   10c824 <_ZN5tools4listIN6kernel6threadEE5frontEv>
  101331:	85 c0                	test   %eax,%eax
  101333:	0f 94 c0             	sete   %al
  101336:	84 c0                	test   %al,%al
  101338:	74 08                	je     101342 <_ZN6kernel9scheduler8scheduleEPN3hal3x863cpu9cpu_stateE+0x32>
	{
		return cpu;
  10133a:	8b 45 0c             	mov    0xc(%ebp),%eax
  10133d:	e9 3d 01 00 00       	jmp    10147f <_ZN6kernel9scheduler8scheduleEPN3hal3x863cpu9cpu_stateE+0x16f>
	}

	if(this->running)
  101342:	8b 45 08             	mov    0x8(%ebp),%eax
  101345:	8b 40 14             	mov    0x14(%eax),%eax
  101348:	85 c0                	test   %eax,%eax
  10134a:	74 2a                	je     101376 <_ZN6kernel9scheduler8scheduleEPN3hal3x863cpu9cpu_stateE+0x66>
	{
		(*this->running).save(cpu);
  10134c:	8b 45 08             	mov    0x8(%ebp),%eax
  10134f:	8b 40 14             	mov    0x14(%eax),%eax
  101352:	8b 55 0c             	mov    0xc(%ebp),%edx
  101355:	89 54 24 04          	mov    %edx,0x4(%esp)
  101359:	89 04 24             	mov    %eax,(%esp)
  10135c:	e8 65 f0 ff ff       	call   1003c6 <_ZN6kernel6thread4saveEPN3hal3x863cpu9cpu_stateE>

		this->ready.push_back(this->running);
  101361:	8b 45 08             	mov    0x8(%ebp),%eax
  101364:	8b 50 14             	mov    0x14(%eax),%edx
  101367:	8b 45 08             	mov    0x8(%ebp),%eax
  10136a:	89 54 24 04          	mov    %edx,0x4(%esp)
  10136e:	89 04 24             	mov    %eax,(%esp)
  101371:	e8 08 ae 00 00       	call   10c17e <_ZN5tools4listIN6kernel6threadEE9push_backEPS2_>
	}

	this->running = this->ready.pop_front();
  101376:	8b 45 08             	mov    0x8(%ebp),%eax
  101379:	89 04 24             	mov    %eax,(%esp)
  10137c:	e8 59 ac 00 00       	call   10bfda <_ZN5tools4listIN6kernel6threadEE9pop_frontEv>
  101381:	8b 55 08             	mov    0x8(%ebp),%edx
  101384:	89 42 14             	mov    %eax,0x14(%edx)

	if(this->running)
  101387:	8b 45 08             	mov    0x8(%ebp),%eax
  10138a:	8b 40 14             	mov    0x14(%eax),%eax
  10138d:	85 c0                	test   %eax,%eax
  10138f:	0f 84 cb 00 00 00    	je     101460 <_ZN6kernel9scheduler8scheduleEPN3hal3x863cpu9cpu_stateE+0x150>
	{
		cpu = (*this->running).restore();
  101395:	8b 45 08             	mov    0x8(%ebp),%eax
  101398:	8b 40 14             	mov    0x14(%eax),%eax
  10139b:	89 04 24             	mov    %eax,(%esp)
  10139e:	e8 31 f0 ff ff       	call   1003d4 <_ZN6kernel6thread7restoreEv>
  1013a3:	89 45 0c             	mov    %eax,0xc(%ebp)
	
		if(this->running->proc->cntxt != this->cntxt)
  1013a6:	8b 45 08             	mov    0x8(%ebp),%eax
  1013a9:	8b 40 14             	mov    0x14(%eax),%eax
  1013ac:	8b 40 18             	mov    0x18(%eax),%eax
  1013af:	8b 90 48 04 00 00    	mov    0x448(%eax),%edx
  1013b5:	8b 45 08             	mov    0x8(%ebp),%eax
  1013b8:	8b 40 18             	mov    0x18(%eax),%eax
  1013bb:	39 c2                	cmp    %eax,%edx
  1013bd:	0f 84 9d 00 00 00    	je     101460 <_ZN6kernel9scheduler8scheduleEPN3hal3x863cpu9cpu_stateE+0x150>
		{
			this->cntxt = this->running->proc->cntxt;
  1013c3:	8b 45 08             	mov    0x8(%ebp),%eax
  1013c6:	8b 40 14             	mov    0x14(%eax),%eax
  1013c9:	8b 40 18             	mov    0x18(%eax),%eax
  1013cc:	8b 90 48 04 00 00    	mov    0x448(%eax),%edx
  1013d2:	8b 45 08             	mov    0x8(%ebp),%eax
  1013d5:	89 50 18             	mov    %edx,0x18(%eax)

			if(this->running->proc->memory_version != kernel::memory_version && this->cntxt != kernel::cntxt)
  1013d8:	8b 45 08             	mov    0x8(%ebp),%eax
  1013db:	8b 40 14             	mov    0x14(%eax),%eax
  1013de:	8b 40 18             	mov    0x18(%eax),%eax
  1013e1:	8b 90 4c 04 00 00    	mov    0x44c(%eax),%edx
  1013e7:	a1 00 30 11 00       	mov    0x113000,%eax
  1013ec:	39 c2                	cmp    %eax,%edx
  1013ee:	74 62                	je     101452 <_ZN6kernel9scheduler8scheduleEPN3hal3x863cpu9cpu_stateE+0x142>
  1013f0:	8b 45 08             	mov    0x8(%ebp),%eax
  1013f3:	8b 50 18             	mov    0x18(%eax),%edx
  1013f6:	a1 04 30 11 00       	mov    0x113004,%eax
  1013fb:	39 c2                	cmp    %eax,%edx
  1013fd:	74 53                	je     101452 <_ZN6kernel9scheduler8scheduleEPN3hal3x863cpu9cpu_stateE+0x142>
			{
				(*this->cntxt).copy(*kernel::vmmgr().get_context(), vmm::kernel_space_base, bytes_to_pages(vmm::kernel_space_limit - vmm::kernel_space_base));
  1013ff:	e8 1c ec ff ff       	call   100020 <_ZN6kernel5vmmgrEv>
  101404:	89 04 24             	mov    %eax,(%esp)
  101407:	e8 a2 37 00 00       	call   104bae <_ZN3hal3x863vmm11get_contextEv>
  10140c:	8b 55 08             	mov    0x8(%ebp),%edx
  10140f:	8b 52 18             	mov    0x18(%edx),%edx
  101412:	c7 44 24 0c ff 3f 00 	movl   $0x3fff,0xc(%esp)
  101419:	00 
  10141a:	c7 44 24 08 00 10 00 	movl   $0x1000,0x8(%esp)
  101421:	00 
  101422:	89 44 24 04          	mov    %eax,0x4(%esp)
  101426:	89 14 24             	mov    %edx,(%esp)
  101429:	e8 ce 47 00 00       	call   105bfc <_ZN3hal3x867context4copyERS1_jj>
			
				this->running->proc->memory_version = --kernel::memory_version;
  10142e:	8b 45 08             	mov    0x8(%ebp),%eax
  101431:	8b 40 14             	mov    0x14(%eax),%eax
  101434:	8b 40 18             	mov    0x18(%eax),%eax
  101437:	8b 15 00 30 11 00    	mov    0x113000,%edx
  10143d:	83 ea 01             	sub    $0x1,%edx
  101440:	89 15 00 30 11 00    	mov    %edx,0x113000
  101446:	8b 15 00 30 11 00    	mov    0x113000,%edx
  10144c:	89 90 4c 04 00 00    	mov    %edx,0x44c(%eax)
			}

			(*this->cntxt).activate();
  101452:	8b 45 08             	mov    0x8(%ebp),%eax
  101455:	8b 40 18             	mov    0x18(%eax),%eax
  101458:	89 04 24             	mov    %eax,(%esp)
  10145b:	e8 be 3f 00 00       	call   10541e <_ZN3hal3x867context8activateEv>
		}
	}

	#if defined(ARCH_X86) || defined(ARCH_X64)

	gdt &gdt = gdt::instance();
  101460:	e8 7b b3 00 00       	call   10c7e0 <_ZN3hal3x863gdt8instanceEv>
  101465:	89 45 f4             	mov    %eax,-0xc(%ebp)
	gdt.tss().tss[1] = (uint32_t)(cpu + 1);
  101468:	8b 45 f4             	mov    -0xc(%ebp),%eax
  10146b:	89 04 24             	mov    %eax,(%esp)
  10146e:	e8 a7 b3 00 00       	call   10c81a <_ZN3hal3x863gdt3tssEv>
  101473:	8b 55 0c             	mov    0xc(%ebp),%edx
  101476:	83 c2 38             	add    $0x38,%edx
  101479:	89 50 04             	mov    %edx,0x4(%eax)

	#endif

	return cpu;
  10147c:	8b 45 0c             	mov    0xc(%ebp),%eax
}
  10147f:	c9                   	leave  
  101480:	c3                   	ret    
  101481:	90                   	nop

00101482 <__tcf_3>:
  101482:	55                   	push   %ebp
  101483:	89 e5                	mov    %esp,%ebp
  101485:	83 ec 18             	sub    $0x18,%esp
  101488:	c7 04 24 04 61 13 00 	movl   $0x136104,(%esp)
  10148f:	e8 0c b1 00 00       	call   10c5a0 <_ZN6kernel9threadmgrD1Ev>
  101494:	c9                   	leave  
  101495:	c3                   	ret    

00101496 <__tcf_4>:
  101496:	55                   	push   %ebp
  101497:	89 e5                	mov    %esp,%ebp
  101499:	83 ec 18             	sub    $0x18,%esp
  10149c:	c7 04 24 60 60 13 00 	movl   $0x136060,(%esp)
  1014a3:	e8 82 aa 00 00       	call   10bf2a <_ZN6kernel9schedulerD1Ev>
  1014a8:	c9                   	leave  
  1014a9:	c3                   	ret    

001014aa <_ZN6kernel7processC1EPKcS2_jPN3hal3x867contextE>:
#include <cstring>

using kernel::process;
using kernel::processmgr;

process::process( const char name[64], const char cmdline[1024], process::id_t parent, context *cntxt ) : memory_version(0)
  1014aa:	55                   	push   %ebp
  1014ab:	89 e5                	mov    %esp,%ebp
  1014ad:	53                   	push   %ebx
  1014ae:	83 ec 14             	sub    $0x14,%esp
  1014b1:	8b 45 08             	mov    0x8(%ebp),%eax
  1014b4:	c7 80 4c 04 00 00 00 	movl   $0x0,0x44c(%eax)
  1014bb:	00 00 00 
  1014be:	8b 45 08             	mov    0x8(%ebp),%eax
  1014c1:	05 54 04 00 00       	add    $0x454,%eax
  1014c6:	89 04 24             	mov    %eax,(%esp)
  1014c9:	e8 96 ad 00 00       	call   10c264 <_ZN5tools4listIN6kernel6threadEEC1Ev>
{
	strcpy(this->name, name);
  1014ce:	8b 45 08             	mov    0x8(%ebp),%eax
  1014d1:	8d 50 08             	lea    0x8(%eax),%edx
  1014d4:	8b 45 0c             	mov    0xc(%ebp),%eax
  1014d7:	89 44 24 04          	mov    %eax,0x4(%esp)
  1014db:	89 14 24             	mov    %edx,(%esp)
  1014de:	e8 2f 86 00 00       	call   109b12 <strcpy>
	strcpy(this->cmdline, cmdline);
  1014e3:	8b 45 08             	mov    0x8(%ebp),%eax
  1014e6:	8d 50 48             	lea    0x48(%eax),%edx
  1014e9:	8b 45 10             	mov    0x10(%ebp),%eax
  1014ec:	89 44 24 04          	mov    %eax,0x4(%esp)
  1014f0:	89 14 24             	mov    %edx,(%esp)
  1014f3:	e8 1a 86 00 00       	call   109b12 <strcpy>

	this->id = process::new_id();
  1014f8:	e8 33 b3 00 00       	call   10c830 <_ZN6kernel7process6new_idEv>
  1014fd:	8b 55 08             	mov    0x8(%ebp),%edx
  101500:	89 02                	mov    %eax,(%edx)

	this->parent = parent;
  101502:	8b 45 08             	mov    0x8(%ebp),%eax
  101505:	8b 55 14             	mov    0x14(%ebp),%edx
  101508:	89 50 04             	mov    %edx,0x4(%eax)

	this->cntxt = cntxt;
  10150b:	8b 45 08             	mov    0x8(%ebp),%eax
  10150e:	8b 55 18             	mov    0x18(%ebp),%edx
  101511:	89 90 48 04 00 00    	mov    %edx,0x448(%eax)

	this->memmgr = new vmm;
  101517:	c7 04 24 14 00 02 00 	movl   $0x20014,(%esp)
  10151e:	e8 7d 0c 00 00       	call   1021a0 <_Znwj>
  101523:	89 c3                	mov    %eax,%ebx
  101525:	89 1c 24             	mov    %ebx,(%esp)
  101528:	e8 91 2e 00 00       	call   1043be <_ZN3hal3x863vmmC1Ev>
  10152d:	8b 45 08             	mov    0x8(%ebp),%eax
  101530:	89 98 50 04 00 00    	mov    %ebx,0x450(%eax)
	(*this->memmgr).init(this->cntxt, vmm::user_space_base, vmm::user_space_limit);
  101536:	8b 45 08             	mov    0x8(%ebp),%eax
  101539:	8b 90 48 04 00 00    	mov    0x448(%eax),%edx
  10153f:	8b 45 08             	mov    0x8(%ebp),%eax
  101542:	8b 80 50 04 00 00    	mov    0x450(%eax),%eax
  101548:	c7 44 24 0c ff df bf 	movl   $0xffbfdfff,0xc(%esp)
  10154f:	ff 
  101550:	c7 44 24 08 00 00 00 	movl   $0x4000000,0x8(%esp)
  101557:	04 
  101558:	89 54 24 04          	mov    %edx,0x4(%esp)
  10155c:	89 04 24             	mov    %eax,(%esp)
  10155f:	e8 30 2f 00 00       	call   104494 <_ZN3hal3x863vmm4initEPNS0_7contextEjj>
}
  101564:	83 c4 14             	add    $0x14,%esp
  101567:	5b                   	pop    %ebx
  101568:	5d                   	pop    %ebp
  101569:	c3                   	ret    

0010156a <_ZN6kernel7processD1Ev>:

process::~process(  )
  10156a:	55                   	push   %ebp
  10156b:	89 e5                	mov    %esp,%ebp
  10156d:	53                   	push   %ebx
  10156e:	83 ec 44             	sub    $0x44,%esp
{
	scheduler &scheduler = scheduler::instance();
  101571:	e8 c7 a9 00 00       	call   10bf3d <_ZN6kernel9scheduler8instanceEv>
  101576:	89 45 f4             	mov    %eax,-0xc(%ebp)
	threadmgr &thrdmgr = threadmgr::instance();
  101579:	e8 35 b0 00 00       	call   10c5b3 <_ZN6kernel9threadmgr8instanceEv>
  10157e:	89 45 f0             	mov    %eax,-0x10(%ebp)

	for(tools::list<thread>::iterator it = this->thrds.begin(); it != this->thrds.end(); it++)
  101581:	8b 45 08             	mov    0x8(%ebp),%eax
  101584:	8d 90 54 04 00 00    	lea    0x454(%eax),%edx
  10158a:	8d 45 d4             	lea    -0x2c(%ebp),%eax
  10158d:	89 54 24 04          	mov    %edx,0x4(%esp)
  101591:	89 04 24             	mov    %eax,(%esp)
  101594:	e8 93 aa 00 00       	call   10c02c <_ZN5tools4listIN6kernel6threadEE5beginEv>
  101599:	83 ec 04             	sub    $0x4,%esp
  10159c:	eb 6c                	jmp    10160a <_ZN6kernel7processD1Ev+0xa0>
	{
		thread *thrd = *it;
  10159e:	8d 45 d4             	lea    -0x2c(%ebp),%eax
  1015a1:	89 04 24             	mov    %eax,(%esp)
  1015a4:	e8 cd aa 00 00       	call   10c076 <_ZN5tools4listIN6kernel6threadEE8iteratordeEv>
  1015a9:	89 45 ec             	mov    %eax,-0x14(%ebp)

		if(thrd)
  1015ac:	83 7d ec 00          	cmpl   $0x0,-0x14(%ebp)
  1015b0:	74 24                	je     1015d6 <_ZN6kernel7processD1Ev+0x6c>
		{
			scheduler.remove(thrd);
  1015b2:	8b 45 ec             	mov    -0x14(%ebp),%eax
  1015b5:	89 44 24 04          	mov    %eax,0x4(%esp)
  1015b9:	8b 45 f4             	mov    -0xc(%ebp),%eax
  1015bc:	89 04 24             	mov    %eax,(%esp)
  1015bf:	e8 a0 fc ff ff       	call   101264 <_ZN6kernel9scheduler6removeEPNS_6threadE>
			thrdmgr.remove(thrd);
  1015c4:	8b 45 ec             	mov    -0x14(%ebp),%eax
  1015c7:	89 44 24 04          	mov    %eax,0x4(%esp)
  1015cb:	8b 45 f0             	mov    -0x10(%ebp),%eax
  1015ce:	89 04 24             	mov    %eax,(%esp)
  1015d1:	e8 64 ee ff ff       	call   10043a <_ZN6kernel9threadmgr6removeEPNS_6threadE>
		}
		
		delete thrd;
  1015d6:	8b 5d ec             	mov    -0x14(%ebp),%ebx
  1015d9:	85 db                	test   %ebx,%ebx
  1015db:	74 10                	je     1015ed <_ZN6kernel7processD1Ev+0x83>
  1015dd:	89 1c 24             	mov    %ebx,(%esp)
  1015e0:	e8 9d ec ff ff       	call   100282 <_ZN6kernel6threadD1Ev>
  1015e5:	89 1c 24             	mov    %ebx,(%esp)
  1015e8:	e8 e9 0b 00 00       	call   1021d6 <_ZdlPv>
process::~process(  )
{
	scheduler &scheduler = scheduler::instance();
	threadmgr &thrdmgr = threadmgr::instance();

	for(tools::list<thread>::iterator it = this->thrds.begin(); it != this->thrds.end(); it++)
  1015ed:	8d 45 dc             	lea    -0x24(%ebp),%eax
  1015f0:	c7 44 24 08 00 00 00 	movl   $0x0,0x8(%esp)
  1015f7:	00 
  1015f8:	8d 55 d4             	lea    -0x2c(%ebp),%edx
  1015fb:	89 54 24 04          	mov    %edx,0x4(%esp)
  1015ff:	89 04 24             	mov    %eax,(%esp)
  101602:	e8 2b ac 00 00       	call   10c232 <_ZN5tools4listIN6kernel6threadEE8iteratorppEi>
  101607:	83 ec 04             	sub    $0x4,%esp
  10160a:	8b 45 08             	mov    0x8(%ebp),%eax
  10160d:	8d 90 54 04 00 00    	lea    0x454(%eax),%edx
  101613:	8d 45 e4             	lea    -0x1c(%ebp),%eax
  101616:	89 54 24 04          	mov    %edx,0x4(%esp)
  10161a:	89 04 24             	mov    %eax,(%esp)
  10161d:	e8 a4 ab 00 00       	call   10c1c6 <_ZN5tools4listIN6kernel6threadEE3endEv>
  101622:	83 ec 04             	sub    $0x4,%esp
  101625:	8d 45 e4             	lea    -0x1c(%ebp),%eax
  101628:	89 44 24 04          	mov    %eax,0x4(%esp)
  10162c:	8d 45 d4             	lea    -0x2c(%ebp),%eax
  10162f:	89 04 24             	mov    %eax,(%esp)
  101632:	e8 db ab 00 00       	call   10c212 <_ZN5tools4listIN6kernel6threadEE8iteratorneERKS4_>
  101637:	84 c0                	test   %al,%al
  101639:	0f 95 c0             	setne  %al
  10163c:	84 c0                	test   %al,%al
  10163e:	0f 85 5a ff ff ff    	jne    10159e <_ZN6kernel7processD1Ev+0x34>
		}
		
		delete thrd;
	}

	delete this->memmgr;
  101644:	8b 45 08             	mov    0x8(%ebp),%eax
  101647:	8b 98 50 04 00 00    	mov    0x450(%eax),%ebx
  10164d:	85 db                	test   %ebx,%ebx
  10164f:	74 10                	je     101661 <_ZN6kernel7processD1Ev+0xf7>
  101651:	89 1c 24             	mov    %ebx,(%esp)
  101654:	e8 a1 2d 00 00       	call   1043fa <_ZN3hal3x863vmmD1Ev>
  101659:	89 1c 24             	mov    %ebx,(%esp)
  10165c:	e8 75 0b 00 00       	call   1021d6 <_ZdlPv>

	this->memmgr = new vmm;
	(*this->memmgr).init(this->cntxt, vmm::user_space_base, vmm::user_space_limit);
}

process::~process(  )
  101661:	8b 45 08             	mov    0x8(%ebp),%eax
  101664:	05 54 04 00 00       	add    $0x454,%eax
  101669:	89 04 24             	mov    %eax,(%esp)
  10166c:	e8 05 a9 00 00       	call   10bf76 <_ZN5tools4listIN6kernel6threadEED1Ev>
		
		delete thrd;
	}

	delete this->memmgr;
}
  101671:	8b 5d fc             	mov    -0x4(%ebp),%ebx
  101674:	c9                   	leave  
  101675:	c3                   	ret    

00101676 <_ZN6kernel7process4infoEv>:

process::info_t process::info(  )
{
  101676:	55                   	push   %ebp
  101677:	89 e5                	mov    %esp,%ebp
  101679:	57                   	push   %edi
  10167a:	56                   	push   %esi
  10167b:	53                   	push   %ebx
  10167c:	83 ec 1c             	sub    $0x1c,%esp
	static process::info_t info;

	info.id 	= this->id;
  10167f:	8b 45 0c             	mov    0xc(%ebp),%eax
  101682:	8b 00                	mov    (%eax),%eax
  101684:	a3 60 30 13 00       	mov    %eax,0x133060
	info.parent 	= this->parent;
  101689:	8b 45 0c             	mov    0xc(%ebp),%eax
  10168c:	8b 40 04             	mov    0x4(%eax),%eax
  10168f:	a3 64 30 13 00       	mov    %eax,0x133064

	strcpy(info.name, this->name);
  101694:	8b 45 0c             	mov    0xc(%ebp),%eax
  101697:	83 c0 08             	add    $0x8,%eax
  10169a:	89 44 24 04          	mov    %eax,0x4(%esp)
  10169e:	c7 04 24 68 30 13 00 	movl   $0x133068,(%esp)
  1016a5:	e8 68 84 00 00       	call   109b12 <strcpy>
	strcpy(info.cmdline, this->cmdline);
  1016aa:	8b 45 0c             	mov    0xc(%ebp),%eax
  1016ad:	83 c0 48             	add    $0x48,%eax
  1016b0:	89 44 24 04          	mov    %eax,0x4(%esp)
  1016b4:	c7 04 24 a8 30 13 00 	movl   $0x1330a8,(%esp)
  1016bb:	e8 52 84 00 00       	call   109b12 <strcpy>

	return info;
  1016c0:	8b 45 08             	mov    0x8(%ebp),%eax
  1016c3:	89 c2                	mov    %eax,%edx
  1016c5:	bb 60 30 13 00       	mov    $0x133060,%ebx
  1016ca:	b8 12 01 00 00       	mov    $0x112,%eax
  1016cf:	89 d7                	mov    %edx,%edi
  1016d1:	89 de                	mov    %ebx,%esi
  1016d3:	89 c1                	mov    %eax,%ecx
  1016d5:	f3 a5                	rep movsl %ds:(%esi),%es:(%edi)
}
  1016d7:	8b 45 08             	mov    0x8(%ebp),%eax
  1016da:	83 c4 1c             	add    $0x1c,%esp
  1016dd:	5b                   	pop    %ebx
  1016de:	5e                   	pop    %esi
  1016df:	5f                   	pop    %edi
  1016e0:	5d                   	pop    %ebp
  1016e1:	c2 04 00             	ret    $0x4

001016e4 <_ZN6kernel10processmgrC1Ev>:

processmgr::processmgr(  )
  1016e4:	55                   	push   %ebp
  1016e5:	89 e5                	mov    %esp,%ebp
  1016e7:	83 ec 18             	sub    $0x18,%esp
  1016ea:	8b 45 08             	mov    0x8(%ebp),%eax
  1016ed:	89 04 24             	mov    %eax,(%esp)
  1016f0:	e8 4f b1 00 00       	call   10c844 <_ZN5tools4listIN6kernel7processEEC1Ev>
{

}
  1016f5:	c9                   	leave  
  1016f6:	c3                   	ret    
  1016f7:	90                   	nop

001016f8 <_ZN6kernel10processmgr3addEPNS_7processE>:

void processmgr::add( process *proc )
{
  1016f8:	55                   	push   %ebp
  1016f9:	89 e5                	mov    %esp,%ebp
  1016fb:	83 ec 18             	sub    $0x18,%esp
	if(proc && this->get(proc) == nullptr)
  1016fe:	83 7d 0c 00          	cmpl   $0x0,0xc(%ebp)
  101702:	74 1d                	je     101721 <_ZN6kernel10processmgr3addEPNS_7processE+0x29>
  101704:	8b 45 0c             	mov    0xc(%ebp),%eax
  101707:	89 44 24 04          	mov    %eax,0x4(%esp)
  10170b:	8b 45 08             	mov    0x8(%ebp),%eax
  10170e:	89 04 24             	mov    %eax,(%esp)
  101711:	e8 4a 02 00 00       	call   101960 <_ZN6kernel10processmgr3getEPNS_7processE>
  101716:	85 c0                	test   %eax,%eax
  101718:	75 07                	jne    101721 <_ZN6kernel10processmgr3addEPNS_7processE+0x29>
  10171a:	b8 01 00 00 00       	mov    $0x1,%eax
  10171f:	eb 05                	jmp    101726 <_ZN6kernel10processmgr3addEPNS_7processE+0x2e>
  101721:	b8 00 00 00 00       	mov    $0x0,%eax
  101726:	84 c0                	test   %al,%al
  101728:	74 12                	je     10173c <_ZN6kernel10processmgr3addEPNS_7processE+0x44>
	{
		this->procs.push_back(proc);
  10172a:	8b 45 08             	mov    0x8(%ebp),%eax
  10172d:	8b 55 0c             	mov    0xc(%ebp),%edx
  101730:	89 54 24 04          	mov    %edx,0x4(%esp)
  101734:	89 04 24             	mov    %eax,(%esp)
  101737:	e8 a0 b1 00 00       	call   10c8dc <_ZN5tools4listIN6kernel7processEE9push_backEPS2_>
	}
}
  10173c:	c9                   	leave  
  10173d:	c3                   	ret    

0010173e <_ZN6kernel10processmgr6removeEPNS_7processE>:

void processmgr::remove( process *proc )
{
  10173e:	55                   	push   %ebp
  10173f:	89 e5                	mov    %esp,%ebp
  101741:	53                   	push   %ebx
  101742:	83 ec 34             	sub    $0x34,%esp
	for(tools::list<process>::iterator it = this->procs.begin(); it != this->procs.end(); it++)
  101745:	8b 55 08             	mov    0x8(%ebp),%edx
  101748:	8d 45 d8             	lea    -0x28(%ebp),%eax
  10174b:	89 54 24 04          	mov    %edx,0x4(%esp)
  10174f:	89 04 24             	mov    %eax,(%esp)
  101752:	e8 4b af 00 00       	call   10c6a2 <_ZN5tools4listIN6kernel7processEE5beginEv>
  101757:	83 ec 04             	sub    $0x4,%esp
  10175a:	eb 55                	jmp    1017b1 <_ZN6kernel10processmgr6removeEPNS_7processE+0x73>
	{
		if(*it == proc)
  10175c:	8d 45 d8             	lea    -0x28(%ebp),%eax
  10175f:	89 04 24             	mov    %eax,(%esp)
  101762:	e8 85 af 00 00       	call   10c6ec <_ZN5tools4listIN6kernel7processEE8iteratordeEv>
  101767:	3b 45 0c             	cmp    0xc(%ebp),%eax
  10176a:	0f 94 c0             	sete   %al
  10176d:	84 c0                	test   %al,%al
  10176f:	74 23                	je     101794 <_ZN6kernel10processmgr6removeEPNS_7processE+0x56>
		{
			this->procs.erase(it);	
  101771:	8b 5d 08             	mov    0x8(%ebp),%ebx
  101774:	8d 4d e0             	lea    -0x20(%ebp),%ecx
  101777:	8b 45 d8             	mov    -0x28(%ebp),%eax
  10177a:	8b 55 dc             	mov    -0x24(%ebp),%edx
  10177d:	89 44 24 08          	mov    %eax,0x8(%esp)
  101781:	89 54 24 0c          	mov    %edx,0xc(%esp)
  101785:	89 5c 24 04          	mov    %ebx,0x4(%esp)
  101789:	89 0c 24             	mov    %ecx,(%esp)
  10178c:	e8 67 af 00 00       	call   10c6f8 <_ZN5tools4listIN6kernel7processEE5eraseENS3_8iteratorE>
  101791:	83 ec 04             	sub    $0x4,%esp
	}
}

void processmgr::remove( process *proc )
{
	for(tools::list<process>::iterator it = this->procs.begin(); it != this->procs.end(); it++)
  101794:	8d 45 e8             	lea    -0x18(%ebp),%eax
  101797:	c7 44 24 08 00 00 00 	movl   $0x0,0x8(%esp)
  10179e:	00 
  10179f:	8d 55 d8             	lea    -0x28(%ebp),%edx
  1017a2:	89 54 24 04          	mov    %edx,0x4(%esp)
  1017a6:	89 04 24             	mov    %eax,(%esp)
  1017a9:	e8 e2 b1 00 00       	call   10c990 <_ZN5tools4listIN6kernel7processEE8iteratorppEi>
  1017ae:	83 ec 04             	sub    $0x4,%esp
  1017b1:	8b 55 08             	mov    0x8(%ebp),%edx
  1017b4:	8d 45 f0             	lea    -0x10(%ebp),%eax
  1017b7:	89 54 24 04          	mov    %edx,0x4(%esp)
  1017bb:	89 04 24             	mov    %eax,(%esp)
  1017be:	e8 61 b1 00 00       	call   10c924 <_ZN5tools4listIN6kernel7processEE3endEv>
  1017c3:	83 ec 04             	sub    $0x4,%esp
  1017c6:	8d 45 f0             	lea    -0x10(%ebp),%eax
  1017c9:	89 44 24 04          	mov    %eax,0x4(%esp)
  1017cd:	8d 45 d8             	lea    -0x28(%ebp),%eax
  1017d0:	89 04 24             	mov    %eax,(%esp)
  1017d3:	e8 98 b1 00 00       	call   10c970 <_ZN5tools4listIN6kernel7processEE8iteratorneERKS4_>
  1017d8:	84 c0                	test   %al,%al
  1017da:	0f 95 c0             	setne  %al
  1017dd:	84 c0                	test   %al,%al
  1017df:	0f 85 77 ff ff ff    	jne    10175c <_ZN6kernel10processmgr6removeEPNS_7processE+0x1e>
		if(*it == proc)
		{
			this->procs.erase(it);	
		}
	}
}
  1017e5:	8b 5d fc             	mov    -0x4(%ebp),%ebx
  1017e8:	c9                   	leave  
  1017e9:	c3                   	ret    

001017ea <_ZN6kernel10processmgr3getEj>:

process *processmgr::get( process::id_t id )
{
  1017ea:	55                   	push   %ebp
  1017eb:	89 e5                	mov    %esp,%ebp
  1017ed:	83 ec 38             	sub    $0x38,%esp
	if(this->procs.empty())
  1017f0:	8b 45 08             	mov    0x8(%ebp),%eax
  1017f3:	89 04 24             	mov    %eax,(%esp)
  1017f6:	e8 45 ae 00 00       	call   10c640 <_ZN5tools4listIN6kernel7processEE5emptyEv>
  1017fb:	84 c0                	test   %al,%al
  1017fd:	0f 95 c0             	setne  %al
  101800:	84 c0                	test   %al,%al
  101802:	74 0a                	je     10180e <_ZN6kernel10processmgr3getEj+0x24>
	{
		return nullptr;
  101804:	b8 00 00 00 00       	mov    $0x0,%eax
  101809:	e9 8d 00 00 00       	jmp    10189b <_ZN6kernel10processmgr3getEj+0xb1>
	}

	for(tools::list<process>::iterator it = this->procs.begin(); it != this->procs.end(); it++)
  10180e:	8b 55 08             	mov    0x8(%ebp),%edx
  101811:	8d 45 e0             	lea    -0x20(%ebp),%eax
  101814:	89 54 24 04          	mov    %edx,0x4(%esp)
  101818:	89 04 24             	mov    %eax,(%esp)
  10181b:	e8 82 ae 00 00       	call   10c6a2 <_ZN5tools4listIN6kernel7processEE5beginEv>
  101820:	83 ec 04             	sub    $0x4,%esp
  101823:	eb 41                	jmp    101866 <_ZN6kernel10processmgr3getEj+0x7c>
	{
		if(it->id == id)
  101825:	8d 45 e0             	lea    -0x20(%ebp),%eax
  101828:	89 04 24             	mov    %eax,(%esp)
  10182b:	e8 92 b1 00 00       	call   10c9c2 <_ZN5tools4listIN6kernel7processEE8iteratorptEv>
  101830:	8b 00                	mov    (%eax),%eax
  101832:	3b 45 0c             	cmp    0xc(%ebp),%eax
  101835:	0f 94 c0             	sete   %al
  101838:	84 c0                	test   %al,%al
  10183a:	74 0d                	je     101849 <_ZN6kernel10processmgr3getEj+0x5f>
		{
			return *it;
  10183c:	8d 45 e0             	lea    -0x20(%ebp),%eax
  10183f:	89 04 24             	mov    %eax,(%esp)
  101842:	e8 a5 ae 00 00       	call   10c6ec <_ZN5tools4listIN6kernel7processEE8iteratordeEv>
  101847:	eb 52                	jmp    10189b <_ZN6kernel10processmgr3getEj+0xb1>
	if(this->procs.empty())
	{
		return nullptr;
	}

	for(tools::list<process>::iterator it = this->procs.begin(); it != this->procs.end(); it++)
  101849:	8d 45 e8             	lea    -0x18(%ebp),%eax
  10184c:	c7 44 24 08 00 00 00 	movl   $0x0,0x8(%esp)
  101853:	00 
  101854:	8d 55 e0             	lea    -0x20(%ebp),%edx
  101857:	89 54 24 04          	mov    %edx,0x4(%esp)
  10185b:	89 04 24             	mov    %eax,(%esp)
  10185e:	e8 2d b1 00 00       	call   10c990 <_ZN5tools4listIN6kernel7processEE8iteratorppEi>
  101863:	83 ec 04             	sub    $0x4,%esp
  101866:	8b 55 08             	mov    0x8(%ebp),%edx
  101869:	8d 45 f0             	lea    -0x10(%ebp),%eax
  10186c:	89 54 24 04          	mov    %edx,0x4(%esp)
  101870:	89 04 24             	mov    %eax,(%esp)
  101873:	e8 ac b0 00 00       	call   10c924 <_ZN5tools4listIN6kernel7processEE3endEv>
  101878:	83 ec 04             	sub    $0x4,%esp
  10187b:	8d 45 f0             	lea    -0x10(%ebp),%eax
  10187e:	89 44 24 04          	mov    %eax,0x4(%esp)
  101882:	8d 45 e0             	lea    -0x20(%ebp),%eax
  101885:	89 04 24             	mov    %eax,(%esp)
  101888:	e8 e3 b0 00 00       	call   10c970 <_ZN5tools4listIN6kernel7processEE8iteratorneERKS4_>
  10188d:	84 c0                	test   %al,%al
  10188f:	0f 95 c0             	setne  %al
  101892:	84 c0                	test   %al,%al
  101894:	75 8f                	jne    101825 <_ZN6kernel10processmgr3getEj+0x3b>
		{
			return *it;
		}
	}

	return nullptr;
  101896:	b8 00 00 00 00       	mov    $0x0,%eax
}
  10189b:	c9                   	leave  
  10189c:	c3                   	ret    
  10189d:	90                   	nop

0010189e <_ZN6kernel10processmgr3getEPKc>:

process *processmgr::get( const char name[64] )
{
  10189e:	55                   	push   %ebp
  10189f:	89 e5                	mov    %esp,%ebp
  1018a1:	83 ec 38             	sub    $0x38,%esp
	if(this->procs.empty())
  1018a4:	8b 45 08             	mov    0x8(%ebp),%eax
  1018a7:	89 04 24             	mov    %eax,(%esp)
  1018aa:	e8 91 ad 00 00       	call   10c640 <_ZN5tools4listIN6kernel7processEE5emptyEv>
  1018af:	84 c0                	test   %al,%al
  1018b1:	0f 95 c0             	setne  %al
  1018b4:	84 c0                	test   %al,%al
  1018b6:	74 0a                	je     1018c2 <_ZN6kernel10processmgr3getEPKc+0x24>
	{
		return nullptr;
  1018b8:	b8 00 00 00 00       	mov    $0x0,%eax
  1018bd:	e9 9c 00 00 00       	jmp    10195e <_ZN6kernel10processmgr3getEPKc+0xc0>
	}

	for(tools::list<process>::iterator it = this->procs.begin(); it != this->procs.end(); it++)
  1018c2:	8b 55 08             	mov    0x8(%ebp),%edx
  1018c5:	8d 45 e0             	lea    -0x20(%ebp),%eax
  1018c8:	89 54 24 04          	mov    %edx,0x4(%esp)
  1018cc:	89 04 24             	mov    %eax,(%esp)
  1018cf:	e8 ce ad 00 00       	call   10c6a2 <_ZN5tools4listIN6kernel7processEE5beginEv>
  1018d4:	83 ec 04             	sub    $0x4,%esp
  1018d7:	eb 50                	jmp    101929 <_ZN6kernel10processmgr3getEPKc+0x8b>
	{
		if(!strcmp(it->name, name))
  1018d9:	8d 45 e0             	lea    -0x20(%ebp),%eax
  1018dc:	89 04 24             	mov    %eax,(%esp)
  1018df:	e8 de b0 00 00       	call   10c9c2 <_ZN5tools4listIN6kernel7processEE8iteratorptEv>
  1018e4:	8d 50 08             	lea    0x8(%eax),%edx
  1018e7:	8b 45 0c             	mov    0xc(%ebp),%eax
  1018ea:	89 44 24 04          	mov    %eax,0x4(%esp)
  1018ee:	89 14 24             	mov    %edx,(%esp)
  1018f1:	e8 b4 83 00 00       	call   109caa <strcmp>
  1018f6:	85 c0                	test   %eax,%eax
  1018f8:	0f 94 c0             	sete   %al
  1018fb:	84 c0                	test   %al,%al
  1018fd:	74 0d                	je     10190c <_ZN6kernel10processmgr3getEPKc+0x6e>
		{
			return *it;
  1018ff:	8d 45 e0             	lea    -0x20(%ebp),%eax
  101902:	89 04 24             	mov    %eax,(%esp)
  101905:	e8 e2 ad 00 00       	call   10c6ec <_ZN5tools4listIN6kernel7processEE8iteratordeEv>
  10190a:	eb 52                	jmp    10195e <_ZN6kernel10processmgr3getEPKc+0xc0>
	if(this->procs.empty())
	{
		return nullptr;
	}

	for(tools::list<process>::iterator it = this->procs.begin(); it != this->procs.end(); it++)
  10190c:	8d 45 e8             	lea    -0x18(%ebp),%eax
  10190f:	c7 44 24 08 00 00 00 	movl   $0x0,0x8(%esp)
  101916:	00 
  101917:	8d 55 e0             	lea    -0x20(%ebp),%edx
  10191a:	89 54 24 04          	mov    %edx,0x4(%esp)
  10191e:	89 04 24             	mov    %eax,(%esp)
  101921:	e8 6a b0 00 00       	call   10c990 <_ZN5tools4listIN6kernel7processEE8iteratorppEi>
  101926:	83 ec 04             	sub    $0x4,%esp
  101929:	8b 55 08             	mov    0x8(%ebp),%edx
  10192c:	8d 45 f0             	lea    -0x10(%ebp),%eax
  10192f:	89 54 24 04          	mov    %edx,0x4(%esp)
  101933:	89 04 24             	mov    %eax,(%esp)
  101936:	e8 e9 af 00 00       	call   10c924 <_ZN5tools4listIN6kernel7processEE3endEv>
  10193b:	83 ec 04             	sub    $0x4,%esp
  10193e:	8d 45 f0             	lea    -0x10(%ebp),%eax
  101941:	89 44 24 04          	mov    %eax,0x4(%esp)
  101945:	8d 45 e0             	lea    -0x20(%ebp),%eax
  101948:	89 04 24             	mov    %eax,(%esp)
  10194b:	e8 20 b0 00 00       	call   10c970 <_ZN5tools4listIN6kernel7processEE8iteratorneERKS4_>
  101950:	84 c0                	test   %al,%al
  101952:	0f 95 c0             	setne  %al
  101955:	84 c0                	test   %al,%al
  101957:	75 80                	jne    1018d9 <_ZN6kernel10processmgr3getEPKc+0x3b>
		{
			return *it;
		}
	}

	return nullptr;
  101959:	b8 00 00 00 00       	mov    $0x0,%eax
}
  10195e:	c9                   	leave  
  10195f:	c3                   	ret    

00101960 <_ZN6kernel10processmgr3getEPNS_7processE>:

process *processmgr::get( process *proc )
{
  101960:	55                   	push   %ebp
  101961:	89 e5                	mov    %esp,%ebp
  101963:	83 ec 38             	sub    $0x38,%esp
	if(this->procs.empty())
  101966:	8b 45 08             	mov    0x8(%ebp),%eax
  101969:	89 04 24             	mov    %eax,(%esp)
  10196c:	e8 cf ac 00 00       	call   10c640 <_ZN5tools4listIN6kernel7processEE5emptyEv>
  101971:	84 c0                	test   %al,%al
  101973:	0f 95 c0             	setne  %al
  101976:	84 c0                	test   %al,%al
  101978:	74 0a                	je     101984 <_ZN6kernel10processmgr3getEPNS_7processE+0x24>
	{
		return nullptr;
  10197a:	b8 00 00 00 00       	mov    $0x0,%eax
  10197f:	e9 8b 00 00 00       	jmp    101a0f <_ZN6kernel10processmgr3getEPNS_7processE+0xaf>
	}

	for(tools::list<process>::iterator it = this->procs.begin(); it != this->procs.end(); it++)
  101984:	8b 55 08             	mov    0x8(%ebp),%edx
  101987:	8d 45 e0             	lea    -0x20(%ebp),%eax
  10198a:	89 54 24 04          	mov    %edx,0x4(%esp)
  10198e:	89 04 24             	mov    %eax,(%esp)
  101991:	e8 0c ad 00 00       	call   10c6a2 <_ZN5tools4listIN6kernel7processEE5beginEv>
  101996:	83 ec 04             	sub    $0x4,%esp
  101999:	eb 3f                	jmp    1019da <_ZN6kernel10processmgr3getEPNS_7processE+0x7a>
	{
		if(*it == proc)
  10199b:	8d 45 e0             	lea    -0x20(%ebp),%eax
  10199e:	89 04 24             	mov    %eax,(%esp)
  1019a1:	e8 46 ad 00 00       	call   10c6ec <_ZN5tools4listIN6kernel7processEE8iteratordeEv>
  1019a6:	3b 45 0c             	cmp    0xc(%ebp),%eax
  1019a9:	0f 94 c0             	sete   %al
  1019ac:	84 c0                	test   %al,%al
  1019ae:	74 0d                	je     1019bd <_ZN6kernel10processmgr3getEPNS_7processE+0x5d>
		{
			return *it;
  1019b0:	8d 45 e0             	lea    -0x20(%ebp),%eax
  1019b3:	89 04 24             	mov    %eax,(%esp)
  1019b6:	e8 31 ad 00 00       	call   10c6ec <_ZN5tools4listIN6kernel7processEE8iteratordeEv>
  1019bb:	eb 52                	jmp    101a0f <_ZN6kernel10processmgr3getEPNS_7processE+0xaf>
	if(this->procs.empty())
	{
		return nullptr;
	}

	for(tools::list<process>::iterator it = this->procs.begin(); it != this->procs.end(); it++)
  1019bd:	8d 45 e8             	lea    -0x18(%ebp),%eax
  1019c0:	c7 44 24 08 00 00 00 	movl   $0x0,0x8(%esp)
  1019c7:	00 
  1019c8:	8d 55 e0             	lea    -0x20(%ebp),%edx
  1019cb:	89 54 24 04          	mov    %edx,0x4(%esp)
  1019cf:	89 04 24             	mov    %eax,(%esp)
  1019d2:	e8 b9 af 00 00       	call   10c990 <_ZN5tools4listIN6kernel7processEE8iteratorppEi>
  1019d7:	83 ec 04             	sub    $0x4,%esp
  1019da:	8b 55 08             	mov    0x8(%ebp),%edx
  1019dd:	8d 45 f0             	lea    -0x10(%ebp),%eax
  1019e0:	89 54 24 04          	mov    %edx,0x4(%esp)
  1019e4:	89 04 24             	mov    %eax,(%esp)
  1019e7:	e8 38 af 00 00       	call   10c924 <_ZN5tools4listIN6kernel7processEE3endEv>
  1019ec:	83 ec 04             	sub    $0x4,%esp
  1019ef:	8d 45 f0             	lea    -0x10(%ebp),%eax
  1019f2:	89 44 24 04          	mov    %eax,0x4(%esp)
  1019f6:	8d 45 e0             	lea    -0x20(%ebp),%eax
  1019f9:	89 04 24             	mov    %eax,(%esp)
  1019fc:	e8 6f af 00 00       	call   10c970 <_ZN5tools4listIN6kernel7processEE8iteratorneERKS4_>
  101a01:	84 c0                	test   %al,%al
  101a03:	0f 95 c0             	setne  %al
  101a06:	84 c0                	test   %al,%al
  101a08:	75 91                	jne    10199b <_ZN6kernel10processmgr3getEPNS_7processE+0x3b>
		{
			return *it;
		}
	}

	return nullptr;
  101a0a:	b8 00 00 00 00       	mov    $0x0,%eax
}
  101a0f:	c9                   	leave  
  101a10:	c3                   	ret    
  101a11:	90                   	nop

00101a12 <_ZN6kernel4heapC1Ev>:

using kernel::heap;

heap kernel::hpmmgr;

heap::heap(  )
  101a12:	55                   	push   %ebp
  101a13:	89 e5                	mov    %esp,%ebp
  101a15:	83 ec 18             	sub    $0x18,%esp
  101a18:	8b 45 08             	mov    0x8(%ebp),%eax
  101a1b:	c7 00 00 00 00 00    	movl   $0x0,(%eax)
{
	this->first 	   = (heap::item*)vmmgr().alloc(vmm::present | vmm::write, 4);
  101a21:	e8 fa e5 ff ff       	call   100020 <_ZN6kernel5vmmgrEv>
  101a26:	c7 44 24 08 04 00 00 	movl   $0x4,0x8(%esp)
  101a2d:	00 
  101a2e:	c7 44 24 04 03 00 00 	movl   $0x3,0x4(%esp)
  101a35:	00 
  101a36:	89 04 24             	mov    %eax,(%esp)
  101a39:	e8 68 2c 00 00       	call   1046a6 <_ZN3hal3x863vmm5allocEjj>
  101a3e:	89 c2                	mov    %eax,%edx
  101a40:	8b 45 08             	mov    0x8(%ebp),%eax
  101a43:	89 10                	mov    %edx,(%eax)
	this->first->flags = heap::flag_free;
  101a45:	8b 45 08             	mov    0x8(%ebp),%eax
  101a48:	8b 00                	mov    (%eax),%eax
  101a4a:	c7 00 01 00 00 00    	movl   $0x1,(%eax)
	this->first->size  = memory::page_size_byte * 4;
  101a50:	8b 45 08             	mov    0x8(%ebp),%eax
  101a53:	8b 00                	mov    (%eax),%eax
  101a55:	c7 40 04 00 40 00 00 	movl   $0x4000,0x4(%eax)
	this->first->next  = nullptr;
  101a5c:	8b 45 08             	mov    0x8(%ebp),%eax
  101a5f:	8b 00                	mov    (%eax),%eax
  101a61:	c7 40 08 00 00 00 00 	movl   $0x0,0x8(%eax)
	this->first->prev  = nullptr;
  101a68:	8b 45 08             	mov    0x8(%ebp),%eax
  101a6b:	8b 00                	mov    (%eax),%eax
  101a6d:	c7 40 0c 00 00 00 00 	movl   $0x0,0xc(%eax)
}
  101a74:	c9                   	leave  
  101a75:	c3                   	ret    

00101a76 <_ZN6kernel4heapD1Ev>:

heap::~heap(  )
  101a76:	55                   	push   %ebp
  101a77:	89 e5                	mov    %esp,%ebp
{
	this->first = nullptr;
  101a79:	8b 45 08             	mov    0x8(%ebp),%eax
  101a7c:	c7 00 00 00 00 00    	movl   $0x0,(%eax)
}
  101a82:	5d                   	pop    %ebp
  101a83:	c3                   	ret    

00101a84 <_ZN6kernel4heap5allocEj>:

void *heap::alloc( size_t size )
{
  101a84:	55                   	push   %ebp
  101a85:	89 e5                	mov    %esp,%ebp
  101a87:	83 ec 38             	sub    $0x38,%esp
	while(1)
	{
		if(size >= 4096)
  101a8a:	81 7d 0c ff 0f 00 00 	cmpl   $0xfff,0xc(%ebp)
  101a91:	76 12                	jbe    101aa5 <_ZN6kernel4heap5allocEj+0x21>
		{
			this->enlarge(size);
  101a93:	8b 45 0c             	mov    0xc(%ebp),%eax
  101a96:	89 44 24 04          	mov    %eax,0x4(%esp)
  101a9a:	8b 45 08             	mov    0x8(%ebp),%eax
  101a9d:	89 04 24             	mov    %eax,(%esp)
  101aa0:	e8 ff 02 00 00       	call   101da4 <_ZN6kernel4heap7enlargeEj>
		}

		if(!this->first)
  101aa5:	8b 45 08             	mov    0x8(%ebp),%eax
  101aa8:	8b 00                	mov    (%eax),%eax
  101aaa:	85 c0                	test   %eax,%eax
  101aac:	75 12                	jne    101ac0 <_ZN6kernel4heap5allocEj+0x3c>
		{
			this->enlarge(size);
  101aae:	8b 45 0c             	mov    0xc(%ebp),%eax
  101ab1:	89 44 24 04          	mov    %eax,0x4(%esp)
  101ab5:	8b 45 08             	mov    0x8(%ebp),%eax
  101ab8:	89 04 24             	mov    %eax,(%esp)
  101abb:	e8 e4 02 00 00       	call   101da4 <_ZN6kernel4heap7enlargeEj>
		}

		heap::item *itm = this->first;
  101ac0:	8b 45 08             	mov    0x8(%ebp),%eax
  101ac3:	8b 00                	mov    (%eax),%eax
  101ac5:	89 45 f4             	mov    %eax,-0xc(%ebp)

		while(itm)
  101ac8:	e9 d1 00 00 00       	jmp    101b9e <_ZN6kernel4heap5allocEj+0x11a>
		{
			if(itm->size >= (size + sizeof(heap::item)) && itm->flags & heap::flag_free)
  101acd:	8b 45 f4             	mov    -0xc(%ebp),%eax
  101ad0:	8b 40 04             	mov    0x4(%eax),%eax
  101ad3:	8b 55 0c             	mov    0xc(%ebp),%edx
  101ad6:	83 c2 10             	add    $0x10,%edx
  101ad9:	39 d0                	cmp    %edx,%eax
  101adb:	0f 82 b4 00 00 00    	jb     101b95 <_ZN6kernel4heap5allocEj+0x111>
  101ae1:	8b 45 f4             	mov    -0xc(%ebp),%eax
  101ae4:	8b 00                	mov    (%eax),%eax
  101ae6:	83 e0 01             	and    $0x1,%eax
  101ae9:	85 c0                	test   %eax,%eax
  101aeb:	0f 84 a4 00 00 00    	je     101b95 <_ZN6kernel4heap5allocEj+0x111>
			{
				size_t ratio = itm->size / (size + sizeof(heap::item));
  101af1:	8b 45 f4             	mov    -0xc(%ebp),%eax
  101af4:	8b 40 04             	mov    0x4(%eax),%eax
  101af7:	8b 55 0c             	mov    0xc(%ebp),%edx
  101afa:	8d 4a 10             	lea    0x10(%edx),%ecx
  101afd:	ba 00 00 00 00       	mov    $0x0,%edx
  101b02:	f7 f1                	div    %ecx
  101b04:	89 45 f0             	mov    %eax,-0x10(%ebp)

				if(ratio >= 2)
  101b07:	83 7d f0 01          	cmpl   $0x1,-0x10(%ebp)
  101b0b:	76 65                	jbe    101b72 <_ZN6kernel4heap5allocEj+0xee>
				{
					this->remove(itm);
  101b0d:	8b 45 f4             	mov    -0xc(%ebp),%eax
  101b10:	89 44 24 04          	mov    %eax,0x4(%esp)
  101b14:	8b 45 08             	mov    0x8(%ebp),%eax
  101b17:	89 04 24             	mov    %eax,(%esp)
  101b1a:	e8 8f 01 00 00       	call   101cae <_ZN6kernel4heap6removeEPNS0_4itemE>

					heap::item *part_1;
					heap::item *part_2;

					this->split(itm, &part_1, &part_2, ratio);
  101b1f:	8b 45 f0             	mov    -0x10(%ebp),%eax
  101b22:	89 44 24 10          	mov    %eax,0x10(%esp)
  101b26:	8d 45 e8             	lea    -0x18(%ebp),%eax
  101b29:	89 44 24 0c          	mov    %eax,0xc(%esp)
  101b2d:	8d 45 ec             	lea    -0x14(%ebp),%eax
  101b30:	89 44 24 08          	mov    %eax,0x8(%esp)
  101b34:	8b 45 f4             	mov    -0xc(%ebp),%eax
  101b37:	89 44 24 04          	mov    %eax,0x4(%esp)
  101b3b:	8b 45 08             	mov    0x8(%ebp),%eax
  101b3e:	89 04 24             	mov    %eax,(%esp)
  101b41:	e8 ce 01 00 00       	call   101d14 <_ZN6kernel4heap5splitEPNS0_4itemEPS2_S3_j>
	
					this->insert(part_2);
  101b46:	8b 45 e8             	mov    -0x18(%ebp),%eax
  101b49:	89 44 24 04          	mov    %eax,0x4(%esp)
  101b4d:	8b 45 08             	mov    0x8(%ebp),%eax
  101b50:	89 04 24             	mov    %eax,(%esp)
  101b53:	e8 18 01 00 00       	call   101c70 <_ZN6kernel4heap6insertEPNS0_4itemE>

					part_1->flags = heap::flag_used;
  101b58:	8b 45 ec             	mov    -0x14(%ebp),%eax
  101b5b:	c7 00 00 00 00 00    	movl   $0x0,(%eax)
					part_2->flags = heap::flag_free;
  101b61:	8b 45 e8             	mov    -0x18(%ebp),%eax
  101b64:	c7 00 01 00 00 00    	movl   $0x1,(%eax)

					return item_to_ptr(part_1);
  101b6a:	8b 45 ec             	mov    -0x14(%ebp),%eax
  101b6d:	83 c0 10             	add    $0x10,%eax
  101b70:	eb 4d                	jmp    101bbf <_ZN6kernel4heap5allocEj+0x13b>
				}
				else
				{
					this->remove(itm);
  101b72:	8b 45 f4             	mov    -0xc(%ebp),%eax
  101b75:	89 44 24 04          	mov    %eax,0x4(%esp)
  101b79:	8b 45 08             	mov    0x8(%ebp),%eax
  101b7c:	89 04 24             	mov    %eax,(%esp)
  101b7f:	e8 2a 01 00 00       	call   101cae <_ZN6kernel4heap6removeEPNS0_4itemE>

					itm->flags = heap::flag_used;
  101b84:	8b 45 f4             	mov    -0xc(%ebp),%eax
  101b87:	c7 00 00 00 00 00    	movl   $0x0,(%eax)

					return item_to_ptr(itm);
  101b8d:	8b 45 f4             	mov    -0xc(%ebp),%eax
  101b90:	83 c0 10             	add    $0x10,%eax
  101b93:	eb 2a                	jmp    101bbf <_ZN6kernel4heap5allocEj+0x13b>
				}
			}

			itm = itm->next;
  101b95:	8b 45 f4             	mov    -0xc(%ebp),%eax
  101b98:	8b 40 08             	mov    0x8(%eax),%eax
  101b9b:	89 45 f4             	mov    %eax,-0xc(%ebp)
			this->enlarge(size);
		}

		heap::item *itm = this->first;

		while(itm)
  101b9e:	83 7d f4 00          	cmpl   $0x0,-0xc(%ebp)
  101ba2:	0f 85 25 ff ff ff    	jne    101acd <_ZN6kernel4heap5allocEj+0x49>
			}

			itm = itm->next;
		}

		this->enlarge(size);
  101ba8:	8b 45 0c             	mov    0xc(%ebp),%eax
  101bab:	89 44 24 04          	mov    %eax,0x4(%esp)
  101baf:	8b 45 08             	mov    0x8(%ebp),%eax
  101bb2:	89 04 24             	mov    %eax,(%esp)
  101bb5:	e8 ea 01 00 00       	call   101da4 <_ZN6kernel4heap7enlargeEj>
	}
  101bba:	e9 cb fe ff ff       	jmp    101a8a <_ZN6kernel4heap5allocEj+0x6>
}
  101bbf:	c9                   	leave  
  101bc0:	c3                   	ret    
  101bc1:	90                   	nop

00101bc2 <_ZN6kernel4heap4freeEPv>:

void heap::free( void *ptr )
{
  101bc2:	55                   	push   %ebp
  101bc3:	89 e5                	mov    %esp,%ebp
  101bc5:	53                   	push   %ebx
  101bc6:	83 ec 24             	sub    $0x24,%esp
	if(ptr)
  101bc9:	83 7d 0c 00          	cmpl   $0x0,0xc(%ebp)
  101bcd:	0f 84 96 00 00 00    	je     101c69 <_ZN6kernel4heap4freeEPv+0xa7>
	{
		heap::item *itm = ptr_to_item(ptr);
  101bd3:	8b 45 0c             	mov    0xc(%ebp),%eax
  101bd6:	83 e8 10             	sub    $0x10,%eax
  101bd9:	89 45 f4             	mov    %eax,-0xc(%ebp)

		if(!(itm->flags & heap::flag_free))
  101bdc:	8b 45 f4             	mov    -0xc(%ebp),%eax
  101bdf:	8b 00                	mov    (%eax),%eax
  101be1:	83 e0 01             	and    $0x1,%eax
  101be4:	85 c0                	test   %eax,%eax
  101be6:	75 1d                	jne    101c05 <_ZN6kernel4heap4freeEPv+0x43>
		{
			this->insert(itm);
  101be8:	8b 45 f4             	mov    -0xc(%ebp),%eax
  101beb:	89 44 24 04          	mov    %eax,0x4(%esp)
  101bef:	8b 45 08             	mov    0x8(%ebp),%eax
  101bf2:	89 04 24             	mov    %eax,(%esp)
  101bf5:	e8 76 00 00 00       	call   101c70 <_ZN6kernel4heap6insertEPNS0_4itemE>

			itm->flags = heap::flag_free;
  101bfa:	8b 45 f4             	mov    -0xc(%ebp),%eax
  101bfd:	c7 00 01 00 00 00    	movl   $0x1,(%eax)
  101c03:	eb 64                	jmp    101c69 <_ZN6kernel4heap4freeEPv+0xa7>
		}
		else
		{
			kout << "[heap] double free or corruption (" << output::hex << itm->flags << "): " << ptr << output::endl;
  101c05:	8b 45 f4             	mov    -0xc(%ebp),%eax
  101c08:	8b 18                	mov    (%eax),%ebx
  101c0a:	c7 44 24 04 f0 e3 10 	movl   $0x10e3f0,0x4(%esp)
  101c11:	00 
  101c12:	c7 04 24 50 30 13 00 	movl   $0x133050,(%esp)
  101c19:	e8 a0 ee ff ff       	call   100abe <_ZN6kernel6outputlsEPKc>
  101c1e:	c7 44 24 04 ef cb 10 	movl   $0x10cbef,0x4(%esp)
  101c25:	00 
  101c26:	89 04 24             	mov    %eax,(%esp)
  101c29:	e8 90 af 00 00       	call   10cbbe <_ZN6kernel6outputlsEPFRS0_S1_E>
  101c2e:	89 5c 24 04          	mov    %ebx,0x4(%esp)
  101c32:	89 04 24             	mov    %eax,(%esp)
  101c35:	e8 50 ed ff ff       	call   10098a <_ZN6kernel6outputlsEj>
  101c3a:	c7 44 24 04 13 e4 10 	movl   $0x10e413,0x4(%esp)
  101c41:	00 
  101c42:	89 04 24             	mov    %eax,(%esp)
  101c45:	e8 74 ee ff ff       	call   100abe <_ZN6kernel6outputlsEPKc>
  101c4a:	8b 55 0c             	mov    0xc(%ebp),%edx
  101c4d:	89 54 24 04          	mov    %edx,0x4(%esp)
  101c51:	89 04 24             	mov    %eax,(%esp)
  101c54:	e8 1d ee ff ff       	call   100a76 <_ZN6kernel6outputlsEPv>
  101c59:	c7 44 24 04 d1 cb 10 	movl   $0x10cbd1,0x4(%esp)
  101c60:	00 
  101c61:	89 04 24             	mov    %eax,(%esp)
  101c64:	e8 55 af 00 00       	call   10cbbe <_ZN6kernel6outputlsEPFRS0_S1_E>
		}
	}
}
  101c69:	83 c4 24             	add    $0x24,%esp
  101c6c:	5b                   	pop    %ebx
  101c6d:	5d                   	pop    %ebp
  101c6e:	c3                   	ret    
  101c6f:	90                   	nop

00101c70 <_ZN6kernel4heap6insertEPNS0_4itemE>:

void heap::insert( heap::item *itm )
{
  101c70:	55                   	push   %ebp
  101c71:	89 e5                	mov    %esp,%ebp
	if(itm)
  101c73:	83 7d 0c 00          	cmpl   $0x0,0xc(%ebp)
  101c77:	74 33                	je     101cac <_ZN6kernel4heap6insertEPNS0_4itemE+0x3c>
	{
		itm->next = this->first;
  101c79:	8b 45 08             	mov    0x8(%ebp),%eax
  101c7c:	8b 10                	mov    (%eax),%edx
  101c7e:	8b 45 0c             	mov    0xc(%ebp),%eax
  101c81:	89 50 08             	mov    %edx,0x8(%eax)
		itm->prev = nullptr;
  101c84:	8b 45 0c             	mov    0xc(%ebp),%eax
  101c87:	c7 40 0c 00 00 00 00 	movl   $0x0,0xc(%eax)

		if(itm->next)
  101c8e:	8b 45 0c             	mov    0xc(%ebp),%eax
  101c91:	8b 40 08             	mov    0x8(%eax),%eax
  101c94:	85 c0                	test   %eax,%eax
  101c96:	74 0c                	je     101ca4 <_ZN6kernel4heap6insertEPNS0_4itemE+0x34>
		{
			itm->next->prev = itm;
  101c98:	8b 45 0c             	mov    0xc(%ebp),%eax
  101c9b:	8b 40 08             	mov    0x8(%eax),%eax
  101c9e:	8b 55 0c             	mov    0xc(%ebp),%edx
  101ca1:	89 50 0c             	mov    %edx,0xc(%eax)
		}

		this->first = itm;
  101ca4:	8b 45 08             	mov    0x8(%ebp),%eax
  101ca7:	8b 55 0c             	mov    0xc(%ebp),%edx
  101caa:	89 10                	mov    %edx,(%eax)
	}
}
  101cac:	5d                   	pop    %ebp
  101cad:	c3                   	ret    

00101cae <_ZN6kernel4heap6removeEPNS0_4itemE>:

void heap::remove( heap::item *itm )
{
  101cae:	55                   	push   %ebp
  101caf:	89 e5                	mov    %esp,%ebp
	if(itm)
  101cb1:	83 7d 0c 00          	cmpl   $0x0,0xc(%ebp)
  101cb5:	74 5b                	je     101d12 <_ZN6kernel4heap6removeEPNS0_4itemE+0x64>
	{
		if(itm->next)
  101cb7:	8b 45 0c             	mov    0xc(%ebp),%eax
  101cba:	8b 40 08             	mov    0x8(%eax),%eax
  101cbd:	85 c0                	test   %eax,%eax
  101cbf:	74 0f                	je     101cd0 <_ZN6kernel4heap6removeEPNS0_4itemE+0x22>
		{
			itm->next->prev = itm->prev;
  101cc1:	8b 45 0c             	mov    0xc(%ebp),%eax
  101cc4:	8b 40 08             	mov    0x8(%eax),%eax
  101cc7:	8b 55 0c             	mov    0xc(%ebp),%edx
  101cca:	8b 52 0c             	mov    0xc(%edx),%edx
  101ccd:	89 50 0c             	mov    %edx,0xc(%eax)
		}

		if(itm->prev)
  101cd0:	8b 45 0c             	mov    0xc(%ebp),%eax
  101cd3:	8b 40 0c             	mov    0xc(%eax),%eax
  101cd6:	85 c0                	test   %eax,%eax
  101cd8:	74 0f                	je     101ce9 <_ZN6kernel4heap6removeEPNS0_4itemE+0x3b>
		{
			itm->prev->next = itm->next;
  101cda:	8b 45 0c             	mov    0xc(%ebp),%eax
  101cdd:	8b 40 0c             	mov    0xc(%eax),%eax
  101ce0:	8b 55 0c             	mov    0xc(%ebp),%edx
  101ce3:	8b 52 08             	mov    0x8(%edx),%edx
  101ce6:	89 50 08             	mov    %edx,0x8(%eax)
		}

		if(itm == this->first)
  101ce9:	8b 45 08             	mov    0x8(%ebp),%eax
  101cec:	8b 00                	mov    (%eax),%eax
  101cee:	3b 45 0c             	cmp    0xc(%ebp),%eax
  101cf1:	75 0b                	jne    101cfe <_ZN6kernel4heap6removeEPNS0_4itemE+0x50>
		{
			this->first = itm->next;
  101cf3:	8b 45 0c             	mov    0xc(%ebp),%eax
  101cf6:	8b 50 08             	mov    0x8(%eax),%edx
  101cf9:	8b 45 08             	mov    0x8(%ebp),%eax
  101cfc:	89 10                	mov    %edx,(%eax)
		}

		itm->next = nullptr;
  101cfe:	8b 45 0c             	mov    0xc(%ebp),%eax
  101d01:	c7 40 08 00 00 00 00 	movl   $0x0,0x8(%eax)
		itm->prev = nullptr;
  101d08:	8b 45 0c             	mov    0xc(%ebp),%eax
  101d0b:	c7 40 0c 00 00 00 00 	movl   $0x0,0xc(%eax)
	}
}
  101d12:	5d                   	pop    %ebp
  101d13:	c3                   	ret    

00101d14 <_ZN6kernel4heap5splitEPNS0_4itemEPS2_S3_j>:

void heap::split( heap::item *itm, heap::item **part_1, heap::item **part_2, size_t ratio )
{
  101d14:	55                   	push   %ebp
  101d15:	89 e5                	mov    %esp,%ebp
  101d17:	83 ec 18             	sub    $0x18,%esp
	this->remove(itm);
  101d1a:	8b 45 0c             	mov    0xc(%ebp),%eax
  101d1d:	89 44 24 04          	mov    %eax,0x4(%esp)
  101d21:	8b 45 08             	mov    0x8(%ebp),%eax
  101d24:	89 04 24             	mov    %eax,(%esp)
  101d27:	e8 82 ff ff ff       	call   101cae <_ZN6kernel4heap6removeEPNS0_4itemE>

	size_t size = itm->size / ratio;
  101d2c:	8b 45 0c             	mov    0xc(%ebp),%eax
  101d2f:	8b 40 04             	mov    0x4(%eax),%eax
  101d32:	ba 00 00 00 00       	mov    $0x0,%edx
  101d37:	f7 75 18             	divl   0x18(%ebp)
  101d3a:	89 45 fc             	mov    %eax,-0x4(%ebp)

	heap::item *p1 = itm;
  101d3d:	8b 45 0c             	mov    0xc(%ebp),%eax
  101d40:	89 45 f8             	mov    %eax,-0x8(%ebp)
	heap::item *p2 = (heap::item*)((uintptr_t)itm + size);
  101d43:	8b 55 0c             	mov    0xc(%ebp),%edx
  101d46:	8b 45 fc             	mov    -0x4(%ebp),%eax
  101d49:	01 d0                	add    %edx,%eax
  101d4b:	89 45 f4             	mov    %eax,-0xc(%ebp)

	p1->next = nullptr;
  101d4e:	8b 45 f8             	mov    -0x8(%ebp),%eax
  101d51:	c7 40 08 00 00 00 00 	movl   $0x0,0x8(%eax)
	p1->prev = nullptr;
  101d58:	8b 45 f8             	mov    -0x8(%ebp),%eax
  101d5b:	c7 40 0c 00 00 00 00 	movl   $0x0,0xc(%eax)
	p2->next = nullptr;
  101d62:	8b 45 f4             	mov    -0xc(%ebp),%eax
  101d65:	c7 40 08 00 00 00 00 	movl   $0x0,0x8(%eax)
	p2->prev = nullptr;
  101d6c:	8b 45 f4             	mov    -0xc(%ebp),%eax
  101d6f:	c7 40 0c 00 00 00 00 	movl   $0x0,0xc(%eax)

	p1->size = size;
  101d76:	8b 45 f8             	mov    -0x8(%ebp),%eax
  101d79:	8b 55 fc             	mov    -0x4(%ebp),%edx
  101d7c:	89 50 04             	mov    %edx,0x4(%eax)
	p2->size = size * (ratio - 1);
  101d7f:	8b 45 18             	mov    0x18(%ebp),%eax
  101d82:	83 e8 01             	sub    $0x1,%eax
  101d85:	0f af 45 fc          	imul   -0x4(%ebp),%eax
  101d89:	89 c2                	mov    %eax,%edx
  101d8b:	8b 45 f4             	mov    -0xc(%ebp),%eax
  101d8e:	89 50 04             	mov    %edx,0x4(%eax)

	*part_1 = p1;
  101d91:	8b 45 10             	mov    0x10(%ebp),%eax
  101d94:	8b 55 f8             	mov    -0x8(%ebp),%edx
  101d97:	89 10                	mov    %edx,(%eax)
	*part_2 = p2;
  101d99:	8b 45 14             	mov    0x14(%ebp),%eax
  101d9c:	8b 55 f4             	mov    -0xc(%ebp),%edx
  101d9f:	89 10                	mov    %edx,(%eax)
}
  101da1:	c9                   	leave  
  101da2:	c3                   	ret    
  101da3:	90                   	nop

00101da4 <_ZN6kernel4heap7enlargeEj>:

void heap::enlarge( size_t size )
{
  101da4:	55                   	push   %ebp
  101da5:	89 e5                	mov    %esp,%ebp
  101da7:	53                   	push   %ebx
  101da8:	83 ec 24             	sub    $0x24,%esp
	heap::item *new_itm = (heap::item*)vmmgr().alloc(vmm::present | vmm::write, bytes_to_pages(size + sizeof(heap::item)));
  101dab:	8b 45 0c             	mov    0xc(%ebp),%eax
  101dae:	05 0f 10 00 00       	add    $0x100f,%eax
  101db3:	c1 e8 0c             	shr    $0xc,%eax
  101db6:	89 c3                	mov    %eax,%ebx
  101db8:	e8 63 e2 ff ff       	call   100020 <_ZN6kernel5vmmgrEv>
  101dbd:	89 5c 24 08          	mov    %ebx,0x8(%esp)
  101dc1:	c7 44 24 04 03 00 00 	movl   $0x3,0x4(%esp)
  101dc8:	00 
  101dc9:	89 04 24             	mov    %eax,(%esp)
  101dcc:	e8 d5 28 00 00       	call   1046a6 <_ZN3hal3x863vmm5allocEjj>
  101dd1:	89 45 f4             	mov    %eax,-0xc(%ebp)

	if(!new_itm)
  101dd4:	83 7d f4 00          	cmpl   $0x0,-0xc(%ebp)
  101dd8:	75 04                	jne    101dde <_ZN6kernel4heap7enlargeEj+0x3a>
	{
		/**
		  * FIXME This is an ugly hack
		  */
		asm("int $0x20");
  101dda:	cd 20                	int    $0x20

		return;
  101ddc:	eb 31                	jmp    101e0f <_ZN6kernel4heap7enlargeEj+0x6b>
	}

	new_itm->flags = heap::flag_free;
  101dde:	8b 45 f4             	mov    -0xc(%ebp),%eax
  101de1:	c7 00 01 00 00 00    	movl   $0x1,(%eax)
	new_itm->size  = bytes_to_pages(size + sizeof(heap::item)) * memory::page_size_byte;
  101de7:	8b 45 0c             	mov    0xc(%ebp),%eax
  101dea:	05 0f 10 00 00       	add    $0x100f,%eax
  101def:	c1 e8 0c             	shr    $0xc,%eax
  101df2:	c1 e0 0c             	shl    $0xc,%eax
  101df5:	89 c2                	mov    %eax,%edx
  101df7:	8b 45 f4             	mov    -0xc(%ebp),%eax
  101dfa:	89 50 04             	mov    %edx,0x4(%eax)

	this->insert(new_itm);
  101dfd:	8b 45 f4             	mov    -0xc(%ebp),%eax
  101e00:	89 44 24 04          	mov    %eax,0x4(%esp)
  101e04:	8b 45 08             	mov    0x8(%ebp),%eax
  101e07:	89 04 24             	mov    %eax,(%esp)
  101e0a:	e8 61 fe ff ff       	call   101c70 <_ZN6kernel4heap6insertEPNS0_4itemE>
}
  101e0f:	83 c4 24             	add    $0x24,%esp
  101e12:	5b                   	pop    %ebx
  101e13:	5d                   	pop    %ebp
  101e14:	c3                   	ret    

00101e15 <_ZN6kernel6mallocEj>:

void *kernel::malloc( size_t size )
{
  101e15:	55                   	push   %ebp
  101e16:	89 e5                	mov    %esp,%ebp
  101e18:	83 ec 18             	sub    $0x18,%esp
	return hpmmgr.alloc(size);
  101e1b:	8b 45 08             	mov    0x8(%ebp),%eax
  101e1e:	89 44 24 04          	mov    %eax,0x4(%esp)
  101e22:	c7 04 24 a8 34 13 00 	movl   $0x1334a8,(%esp)
  101e29:	e8 56 fc ff ff       	call   101a84 <_ZN6kernel4heap5allocEj>
}
  101e2e:	c9                   	leave  
  101e2f:	c3                   	ret    

00101e30 <_ZN6kernel6callocEjj>:

void *kernel::calloc( size_t n, size_t size )
{
  101e30:	55                   	push   %ebp
  101e31:	89 e5                	mov    %esp,%ebp
  101e33:	83 ec 28             	sub    $0x28,%esp
	void *ptr = hpmmgr.alloc(n * size);
  101e36:	8b 45 08             	mov    0x8(%ebp),%eax
  101e39:	0f af 45 0c          	imul   0xc(%ebp),%eax
  101e3d:	89 44 24 04          	mov    %eax,0x4(%esp)
  101e41:	c7 04 24 a8 34 13 00 	movl   $0x1334a8,(%esp)
  101e48:	e8 37 fc ff ff       	call   101a84 <_ZN6kernel4heap5allocEj>
  101e4d:	89 45 f4             	mov    %eax,-0xc(%ebp)

	if(ptr)
  101e50:	83 7d f4 00          	cmpl   $0x0,-0xc(%ebp)
  101e54:	74 1e                	je     101e74 <_ZN6kernel6callocEjj+0x44>
	{
		memset(ptr, 0, n * size);
  101e56:	8b 45 08             	mov    0x8(%ebp),%eax
  101e59:	0f af 45 0c          	imul   0xc(%ebp),%eax
  101e5d:	89 44 24 08          	mov    %eax,0x8(%esp)
  101e61:	c7 44 24 04 00 00 00 	movl   $0x0,0x4(%esp)
  101e68:	00 
  101e69:	8b 45 f4             	mov    -0xc(%ebp),%eax
  101e6c:	89 04 24             	mov    %eax,(%esp)
  101e6f:	e8 4b 81 00 00       	call   109fbf <memset>
	}

	return ptr;
  101e74:	8b 45 f4             	mov    -0xc(%ebp),%eax
}
  101e77:	c9                   	leave  
  101e78:	c3                   	ret    

00101e79 <_ZN6kernel7reallocEPvj>:

void *kernel::realloc( void *ptr, size_t size )
{
  101e79:	55                   	push   %ebp
  101e7a:	89 e5                	mov    %esp,%ebp
  101e7c:	83 ec 28             	sub    $0x28,%esp
	if(ptr)
  101e7f:	83 7d 08 00          	cmpl   $0x0,0x8(%ebp)
  101e83:	0f 84 8f 00 00 00    	je     101f18 <_ZN6kernel7reallocEPvj+0x9f>
	{
		heap::item *itm = ptr_to_item(ptr);
  101e89:	8b 45 08             	mov    0x8(%ebp),%eax
  101e8c:	83 e8 10             	sub    $0x10,%eax
  101e8f:	89 45 f4             	mov    %eax,-0xc(%ebp)

		if(size != itm->size)
  101e92:	8b 45 f4             	mov    -0xc(%ebp),%eax
  101e95:	8b 40 04             	mov    0x4(%eax),%eax
  101e98:	3b 45 0c             	cmp    0xc(%ebp),%eax
  101e9b:	74 76                	je     101f13 <_ZN6kernel7reallocEPvj+0x9a>
		{
			void *new_ptr = hpmmgr.alloc(size);
  101e9d:	8b 45 0c             	mov    0xc(%ebp),%eax
  101ea0:	89 44 24 04          	mov    %eax,0x4(%esp)
  101ea4:	c7 04 24 a8 34 13 00 	movl   $0x1334a8,(%esp)
  101eab:	e8 d4 fb ff ff       	call   101a84 <_ZN6kernel4heap5allocEj>
  101eb0:	89 45 f0             	mov    %eax,-0x10(%ebp)
		
			if(new_ptr)
  101eb3:	83 7d f0 00          	cmpl   $0x0,-0x10(%ebp)
  101eb7:	74 42                	je     101efb <_ZN6kernel7reallocEPvj+0x82>
			{
				if(size > itm->size)
  101eb9:	8b 45 f4             	mov    -0xc(%ebp),%eax
  101ebc:	8b 40 04             	mov    0x4(%eax),%eax
  101ebf:	3b 45 0c             	cmp    0xc(%ebp),%eax
  101ec2:	73 1e                	jae    101ee2 <_ZN6kernel7reallocEPvj+0x69>
				{
					memcpy(new_ptr, ptr, itm->size);
  101ec4:	8b 45 f4             	mov    -0xc(%ebp),%eax
  101ec7:	8b 40 04             	mov    0x4(%eax),%eax
  101eca:	89 44 24 08          	mov    %eax,0x8(%esp)
  101ece:	8b 45 08             	mov    0x8(%ebp),%eax
  101ed1:	89 44 24 04          	mov    %eax,0x4(%esp)
  101ed5:	8b 45 f0             	mov    -0x10(%ebp),%eax
  101ed8:	89 04 24             	mov    %eax,(%esp)
  101edb:	e8 f9 7b 00 00       	call   109ad9 <memcpy>
  101ee0:	eb 19                	jmp    101efb <_ZN6kernel7reallocEPvj+0x82>
				}
				else
				{
					memcpy(new_ptr, ptr, size);
  101ee2:	8b 45 0c             	mov    0xc(%ebp),%eax
  101ee5:	89 44 24 08          	mov    %eax,0x8(%esp)
  101ee9:	8b 45 08             	mov    0x8(%ebp),%eax
  101eec:	89 44 24 04          	mov    %eax,0x4(%esp)
  101ef0:	8b 45 f0             	mov    -0x10(%ebp),%eax
  101ef3:	89 04 24             	mov    %eax,(%esp)
  101ef6:	e8 de 7b 00 00       	call   109ad9 <memcpy>
				}
			}	

			hpmmgr.free(ptr);
  101efb:	8b 45 08             	mov    0x8(%ebp),%eax
  101efe:	89 44 24 04          	mov    %eax,0x4(%esp)
  101f02:	c7 04 24 a8 34 13 00 	movl   $0x1334a8,(%esp)
  101f09:	e8 b4 fc ff ff       	call   101bc2 <_ZN6kernel4heap4freeEPv>
	
			return new_ptr;
  101f0e:	8b 45 f0             	mov    -0x10(%ebp),%eax
  101f11:	eb 18                	jmp    101f2b <_ZN6kernel7reallocEPvj+0xb2>
		}

		return ptr;
  101f13:	8b 45 08             	mov    0x8(%ebp),%eax
  101f16:	eb 13                	jmp    101f2b <_ZN6kernel7reallocEPvj+0xb2>
	}
	else
	{
		return hpmmgr.alloc(size);
  101f18:	8b 45 0c             	mov    0xc(%ebp),%eax
  101f1b:	89 44 24 04          	mov    %eax,0x4(%esp)
  101f1f:	c7 04 24 a8 34 13 00 	movl   $0x1334a8,(%esp)
  101f26:	e8 59 fb ff ff       	call   101a84 <_ZN6kernel4heap5allocEj>
	}
}
  101f2b:	c9                   	leave  
  101f2c:	c3                   	ret    

00101f2d <_ZN6kernel4freeEPv>:

void kernel::free( void *ptr )
{
  101f2d:	55                   	push   %ebp
  101f2e:	89 e5                	mov    %esp,%ebp
  101f30:	83 ec 18             	sub    $0x18,%esp
	hpmmgr.free(ptr);
  101f33:	8b 45 08             	mov    0x8(%ebp),%eax
  101f36:	89 44 24 04          	mov    %eax,0x4(%esp)
  101f3a:	c7 04 24 a8 34 13 00 	movl   $0x1334a8,(%esp)
  101f41:	e8 7c fc ff ff       	call   101bc2 <_ZN6kernel4heap4freeEPv>
}
  101f46:	c9                   	leave  
  101f47:	c3                   	ret    

00101f48 <_Z41__static_initialization_and_destruction_0ii>:
  101f48:	55                   	push   %ebp
  101f49:	89 e5                	mov    %esp,%ebp
  101f4b:	83 ec 18             	sub    $0x18,%esp
  101f4e:	83 7d 08 01          	cmpl   $0x1,0x8(%ebp)
  101f52:	75 15                	jne    101f69 <_Z41__static_initialization_and_destruction_0ii+0x21>
  101f54:	81 7d 0c ff ff 00 00 	cmpl   $0xffff,0xc(%ebp)
  101f5b:	75 0c                	jne    101f69 <_Z41__static_initialization_and_destruction_0ii+0x21>
#define item_to_ptr(itm)	((void*)      ((uintptr_t)itm + sizeof(heap::item)))	
#define ptr_to_item(ptr)	((heap::item*)((uintptr_t)ptr - sizeof(heap::item)))

using kernel::heap;

heap kernel::hpmmgr;
  101f5d:	c7 04 24 a8 34 13 00 	movl   $0x1334a8,(%esp)
  101f64:	e8 a9 fa ff ff       	call   101a12 <_ZN6kernel4heapC1Ev>
  101f69:	83 7d 08 00          	cmpl   $0x0,0x8(%ebp)
  101f6d:	75 15                	jne    101f84 <_Z41__static_initialization_and_destruction_0ii+0x3c>
  101f6f:	81 7d 0c ff ff 00 00 	cmpl   $0xffff,0xc(%ebp)
  101f76:	75 0c                	jne    101f84 <_Z41__static_initialization_and_destruction_0ii+0x3c>
  101f78:	c7 04 24 a8 34 13 00 	movl   $0x1334a8,(%esp)
  101f7f:	e8 f2 fa ff ff       	call   101a76 <_ZN6kernel4heapD1Ev>
}

void kernel::free( void *ptr )
{
	hpmmgr.free(ptr);
}
  101f84:	c9                   	leave  
  101f85:	c3                   	ret    

00101f86 <_GLOBAL__sub_I__ZN6kernel6hpmmgrE>:
  101f86:	55                   	push   %ebp
  101f87:	89 e5                	mov    %esp,%ebp
  101f89:	83 ec 18             	sub    $0x18,%esp
  101f8c:	c7 44 24 04 ff ff 00 	movl   $0xffff,0x4(%esp)
  101f93:	00 
  101f94:	c7 04 24 01 00 00 00 	movl   $0x1,(%esp)
  101f9b:	e8 a8 ff ff ff       	call   101f48 <_Z41__static_initialization_and_destruction_0ii>
  101fa0:	c9                   	leave  
  101fa1:	c3                   	ret    

00101fa2 <_GLOBAL__sub_D__ZN6kernel6hpmmgrE>:
  101fa2:	55                   	push   %ebp
  101fa3:	89 e5                	mov    %esp,%ebp
  101fa5:	83 ec 18             	sub    $0x18,%esp
  101fa8:	c7 44 24 04 ff ff 00 	movl   $0xffff,0x4(%esp)
  101faf:	00 
  101fb0:	c7 04 24 00 00 00 00 	movl   $0x0,(%esp)
  101fb7:	e8 8c ff ff ff       	call   101f48 <_Z41__static_initialization_and_destruction_0ii>
  101fbc:	c9                   	leave  
  101fbd:	c3                   	ret    

00101fbe <_ZN6kernel3tarC1Ej>:
#include <number.hpp>
#include <cstring>

using kernel::tar;

tar::tar( uintptr_t addr ) : objects(0), size(0)
  101fbe:	55                   	push   %ebp
  101fbf:	89 e5                	mov    %esp,%ebp
  101fc1:	83 ec 28             	sub    $0x28,%esp
  101fc4:	8b 45 08             	mov    0x8(%ebp),%eax
  101fc7:	c7 00 00 00 00 00    	movl   $0x0,(%eax)
  101fcd:	8b 45 08             	mov    0x8(%ebp),%eax
  101fd0:	c7 40 04 00 00 00 00 	movl   $0x0,0x4(%eax)
{
	if(addr)
  101fd7:	83 7d 0c 00          	cmpl   $0x0,0xc(%ebp)
  101fdb:	0f 84 b8 00 00 00    	je     102099 <_ZN6kernel3tarC1Ej+0xdb>
	{
		for(size_t index = 0; ; index++)
  101fe1:	c7 45 f4 00 00 00 00 	movl   $0x0,-0xc(%ebp)
		{
			tar::header_t *header = (tar::header_t*)addr;
  101fe8:	8b 45 0c             	mov    0xc(%ebp),%eax
  101feb:	89 45 f0             	mov    %eax,-0x10(%ebp)

			if(header->name[0] == '\0')
  101fee:	8b 45 f0             	mov    -0x10(%ebp),%eax
  101ff1:	0f b6 00             	movzbl (%eax),%eax
  101ff4:	84 c0                	test   %al,%al
  101ff6:	75 06                	jne    101ffe <_ZN6kernel3tarC1Ej+0x40>
			{
				break;
  101ff8:	90                   	nop
  101ff9:	e9 9b 00 00 00       	jmp    102099 <_ZN6kernel3tarC1Ej+0xdb>
			}

			size_t size = tools::stoi(header->size, 8);
  101ffe:	8b 45 f0             	mov    -0x10(%ebp),%eax
  102001:	83 c0 7c             	add    $0x7c,%eax
  102004:	c7 44 24 04 08 00 00 	movl   $0x8,0x4(%esp)
  10200b:	00 
  10200c:	89 04 24             	mov    %eax,(%esp)
  10200f:	e8 6d 12 00 00       	call   103281 <_ZN5tools4stoiEPKcj>
  102014:	89 45 ec             	mov    %eax,-0x14(%ebp)

			this->objects	+= 1;
  102017:	8b 45 08             	mov    0x8(%ebp),%eax
  10201a:	8b 00                	mov    (%eax),%eax
  10201c:	8d 50 01             	lea    0x1(%eax),%edx
  10201f:	8b 45 08             	mov    0x8(%ebp),%eax
  102022:	89 10                	mov    %edx,(%eax)
			this->size 	+= size;
  102024:	8b 45 08             	mov    0x8(%ebp),%eax
  102027:	8b 50 04             	mov    0x4(%eax),%edx
  10202a:	8b 45 ec             	mov    -0x14(%ebp),%eax
  10202d:	01 c2                	add    %eax,%edx
  10202f:	8b 45 08             	mov    0x8(%ebp),%eax
  102032:	89 50 04             	mov    %edx,0x4(%eax)

			this->headers    	= (tar::header_t**)kernel::realloc(this->headers, this->objects * this->size);
  102035:	8b 45 08             	mov    0x8(%ebp),%eax
  102038:	8b 10                	mov    (%eax),%edx
  10203a:	8b 45 08             	mov    0x8(%ebp),%eax
  10203d:	8b 40 04             	mov    0x4(%eax),%eax
  102040:	0f af d0             	imul   %eax,%edx
  102043:	8b 45 08             	mov    0x8(%ebp),%eax
  102046:	8b 40 08             	mov    0x8(%eax),%eax
  102049:	89 54 24 04          	mov    %edx,0x4(%esp)
  10204d:	89 04 24             	mov    %eax,(%esp)
  102050:	e8 24 fe ff ff       	call   101e79 <_ZN6kernel7reallocEPvj>
  102055:	8b 55 08             	mov    0x8(%ebp),%edx
  102058:	89 42 08             	mov    %eax,0x8(%edx)
			this->headers[index] 	= header;
  10205b:	8b 45 08             	mov    0x8(%ebp),%eax
  10205e:	8b 40 08             	mov    0x8(%eax),%eax
  102061:	8b 55 f4             	mov    -0xc(%ebp),%edx
  102064:	c1 e2 02             	shl    $0x2,%edx
  102067:	01 c2                	add    %eax,%edx
  102069:	8b 45 f0             	mov    -0x10(%ebp),%eax
  10206c:	89 02                	mov    %eax,(%edx)

			addr += ((size / 512) + 1) * 512;
  10206e:	8b 45 ec             	mov    -0x14(%ebp),%eax
  102071:	c1 e8 09             	shr    $0x9,%eax
  102074:	83 c0 01             	add    $0x1,%eax
  102077:	c1 e0 09             	shl    $0x9,%eax
  10207a:	01 45 0c             	add    %eax,0xc(%ebp)

			if(size % 512)
  10207d:	8b 45 ec             	mov    -0x14(%ebp),%eax
  102080:	25 ff 01 00 00       	and    $0x1ff,%eax
  102085:	85 c0                	test   %eax,%eax
  102087:	74 07                	je     102090 <_ZN6kernel3tarC1Ej+0xd2>
			{
            			addr += 512;
  102089:	81 45 0c 00 02 00 00 	addl   $0x200,0xc(%ebp)

tar::tar( uintptr_t addr ) : objects(0), size(0)
{
	if(addr)
	{
		for(size_t index = 0; ; index++)
  102090:	83 45 f4 01          	addl   $0x1,-0xc(%ebp)

			if(size % 512)
			{
            			addr += 512;
			}
		} 
  102094:	e9 4f ff ff ff       	jmp    101fe8 <_ZN6kernel3tarC1Ej+0x2a>
	}
}
  102099:	c9                   	leave  
  10209a:	c3                   	ret    
  10209b:	90                   	nop

0010209c <_ZN6kernel3tar4readEPKcPcj>:

size_t tar::read( const char *name, char *buffer, size_t size )
{
  10209c:	55                   	push   %ebp
  10209d:	89 e5                	mov    %esp,%ebp
  10209f:	83 ec 28             	sub    $0x28,%esp
	if(!buffer)
  1020a2:	83 7d 10 00          	cmpl   $0x0,0x10(%ebp)
  1020a6:	75 0a                	jne    1020b2 <_ZN6kernel3tar4readEPKcPcj+0x16>
	{
		return 0;
  1020a8:	b8 00 00 00 00       	mov    $0x0,%eax
  1020ad:	e9 c3 00 00 00       	jmp    102175 <_ZN6kernel3tar4readEPKcPcj+0xd9>
	}

	tar::header_t *header = nullptr;
  1020b2:	c7 45 f4 00 00 00 00 	movl   $0x0,-0xc(%ebp)

	for(size_t index = 0; index < this->objects; index++)
  1020b9:	c7 45 f0 00 00 00 00 	movl   $0x0,-0x10(%ebp)
  1020c0:	eb 41                	jmp    102103 <_ZN6kernel3tar4readEPKcPcj+0x67>
	{
		if(!strcmp(this->headers[index]->name, name))
  1020c2:	8b 45 08             	mov    0x8(%ebp),%eax
  1020c5:	8b 40 08             	mov    0x8(%eax),%eax
  1020c8:	8b 55 f0             	mov    -0x10(%ebp),%edx
  1020cb:	c1 e2 02             	shl    $0x2,%edx
  1020ce:	01 d0                	add    %edx,%eax
  1020d0:	8b 00                	mov    (%eax),%eax
  1020d2:	8b 55 0c             	mov    0xc(%ebp),%edx
  1020d5:	89 54 24 04          	mov    %edx,0x4(%esp)
  1020d9:	89 04 24             	mov    %eax,(%esp)
  1020dc:	e8 c9 7b 00 00       	call   109caa <strcmp>
  1020e1:	85 c0                	test   %eax,%eax
  1020e3:	0f 94 c0             	sete   %al
  1020e6:	84 c0                	test   %al,%al
  1020e8:	74 15                	je     1020ff <_ZN6kernel3tar4readEPKcPcj+0x63>
		{
			header = this->headers[index];
  1020ea:	8b 45 08             	mov    0x8(%ebp),%eax
  1020ed:	8b 40 08             	mov    0x8(%eax),%eax
  1020f0:	8b 55 f0             	mov    -0x10(%ebp),%edx
  1020f3:	c1 e2 02             	shl    $0x2,%edx
  1020f6:	01 d0                	add    %edx,%eax
  1020f8:	8b 00                	mov    (%eax),%eax
  1020fa:	89 45 f4             	mov    %eax,-0xc(%ebp)
			
			break;
  1020fd:	eb 0e                	jmp    10210d <_ZN6kernel3tar4readEPKcPcj+0x71>
		return 0;
	}

	tar::header_t *header = nullptr;

	for(size_t index = 0; index < this->objects; index++)
  1020ff:	83 45 f0 01          	addl   $0x1,-0x10(%ebp)
  102103:	8b 45 08             	mov    0x8(%ebp),%eax
  102106:	8b 00                	mov    (%eax),%eax
  102108:	3b 45 f0             	cmp    -0x10(%ebp),%eax
  10210b:	77 b5                	ja     1020c2 <_ZN6kernel3tar4readEPKcPcj+0x26>
			
			break;
		}
	}

	if(header)
  10210d:	83 7d f4 00          	cmpl   $0x0,-0xc(%ebp)
  102111:	74 5d                	je     102170 <_ZN6kernel3tar4readEPKcPcj+0xd4>
	{
		if((size_t)tools::stoi(header->size, 8) < size)
  102113:	8b 45 f4             	mov    -0xc(%ebp),%eax
  102116:	83 c0 7c             	add    $0x7c,%eax
  102119:	c7 44 24 04 08 00 00 	movl   $0x8,0x4(%esp)
  102120:	00 
  102121:	89 04 24             	mov    %eax,(%esp)
  102124:	e8 58 11 00 00       	call   103281 <_ZN5tools4stoiEPKcj>
  102129:	3b 45 14             	cmp    0x14(%ebp),%eax
  10212c:	0f 92 c0             	setb   %al
  10212f:	84 c0                	test   %al,%al
  102131:	74 19                	je     10214c <_ZN6kernel3tar4readEPKcPcj+0xb0>
		{
			size = tools::stoi(header->size, 8);
  102133:	8b 45 f4             	mov    -0xc(%ebp),%eax
  102136:	83 c0 7c             	add    $0x7c,%eax
  102139:	c7 44 24 04 08 00 00 	movl   $0x8,0x4(%esp)
  102140:	00 
  102141:	89 04 24             	mov    %eax,(%esp)
  102144:	e8 38 11 00 00       	call   103281 <_ZN5tools4stoiEPKcj>
  102149:	89 45 14             	mov    %eax,0x14(%ebp)
		}

		memcpy(buffer, (char*)(header + 1), size);
  10214c:	8b 45 f4             	mov    -0xc(%ebp),%eax
  10214f:	8d 90 00 02 00 00    	lea    0x200(%eax),%edx
  102155:	8b 45 14             	mov    0x14(%ebp),%eax
  102158:	89 44 24 08          	mov    %eax,0x8(%esp)
  10215c:	89 54 24 04          	mov    %edx,0x4(%esp)
  102160:	8b 45 10             	mov    0x10(%ebp),%eax
  102163:	89 04 24             	mov    %eax,(%esp)
  102166:	e8 6e 79 00 00       	call   109ad9 <memcpy>

		return size;
  10216b:	8b 45 14             	mov    0x14(%ebp),%eax
  10216e:	eb 05                	jmp    102175 <_ZN6kernel3tar4readEPKcPcj+0xd9>
	}

	return 0;
  102170:	b8 00 00 00 00       	mov    $0x0,%eax
}
  102175:	c9                   	leave  
  102176:	c3                   	ret    
  102177:	90                   	nop

00102178 <__tcf_0>:
  102178:	55                   	push   %ebp
  102179:	89 e5                	mov    %esp,%ebp
  10217b:	83 ec 18             	sub    $0x18,%esp
  10217e:	c7 04 24 40 61 15 00 	movl   $0x156140,(%esp)
  102185:	e8 c0 6e 00 00       	call   10904a <_ZN3hal3x863gdtD1Ev>
  10218a:	c9                   	leave  
  10218b:	c3                   	ret    

0010218c <__tcf_1>:
		  *		It also contains the Interrupt Descriptor Table itself.
		  *		This class is implemented as a singleton, so only one instance of this class can be used (it is not possible to set up more than one IDT).
		  */
		class idt
		{
			SINGLETON(idt)
  10218c:	55                   	push   %ebp
  10218d:	89 e5                	mov    %esp,%ebp
  10218f:	83 ec 18             	sub    $0x18,%esp
  102192:	c7 04 24 40 62 15 00 	movl   $0x156240,(%esp)
  102199:	e8 16 3b 00 00       	call   105cb4 <_ZN3hal3x863idtD1Ev>
  10219e:	c9                   	leave  
  10219f:	c3                   	ret    

001021a0 <_Znwj>:
  *
  * @param	size		Number of bytes to be allocated
  * @return			Pointer to allocated memory or null pointer if allocation failed
  */
void *operator new( size_t size )
{
  1021a0:	55                   	push   %ebp
  1021a1:	89 e5                	mov    %esp,%ebp
  1021a3:	83 ec 18             	sub    $0x18,%esp
	return kernel::calloc(1, size);
  1021a6:	8b 45 08             	mov    0x8(%ebp),%eax
  1021a9:	89 44 24 04          	mov    %eax,0x4(%esp)
  1021ad:	c7 04 24 01 00 00 00 	movl   $0x1,(%esp)
  1021b4:	e8 77 fc ff ff       	call   101e30 <_ZN6kernel6callocEjj>
}
  1021b9:	c9                   	leave  
  1021ba:	c3                   	ret    

001021bb <_Znaj>:
  *
  * @param	size		Number of bytes to be allocated
  * @return			Pointer to allocated memory or null pointer if allocation failed
  */
void *operator new[]( size_t  size )
{
  1021bb:	55                   	push   %ebp
  1021bc:	89 e5                	mov    %esp,%ebp
  1021be:	83 ec 18             	sub    $0x18,%esp
	return kernel::calloc(1, size);
  1021c1:	8b 45 08             	mov    0x8(%ebp),%eax
  1021c4:	89 44 24 04          	mov    %eax,0x4(%esp)
  1021c8:	c7 04 24 01 00 00 00 	movl   $0x1,(%esp)
  1021cf:	e8 5c fc ff ff       	call   101e30 <_ZN6kernel6callocEjj>
}
  1021d4:	c9                   	leave  
  1021d5:	c3                   	ret    

001021d6 <_ZdlPv>:
  * @brief	Default deallocation function; std-c++
  *
  * @param	ptr		Pointer to the memory block to be deallocated
  */
void operator delete( void *ptr )
{
  1021d6:	55                   	push   %ebp
  1021d7:	89 e5                	mov    %esp,%ebp
  1021d9:	83 ec 18             	sub    $0x18,%esp
	kernel::free(ptr);
  1021dc:	8b 45 08             	mov    0x8(%ebp),%eax
  1021df:	89 04 24             	mov    %eax,(%esp)
  1021e2:	e8 46 fd ff ff       	call   101f2d <_ZN6kernel4freeEPv>
}
  1021e7:	c9                   	leave  
  1021e8:	c3                   	ret    

001021e9 <_ZdaPv>:
  * @brief	Default deallocation function (used for arrays); std-c++
  *
  * @param	ptr		Pointer to the memory block to be deallocated
  */
void operator delete[]( void *ptr )
{
  1021e9:	55                   	push   %ebp
  1021ea:	89 e5                	mov    %esp,%ebp
  1021ec:	83 ec 18             	sub    $0x18,%esp
	kernel::free(ptr);
  1021ef:	8b 45 08             	mov    0x8(%ebp),%eax
  1021f2:	89 04 24             	mov    %eax,(%esp)
  1021f5:	e8 33 fd ff ff       	call   101f2d <_ZN6kernel4freeEPv>
}
  1021fa:	c9                   	leave  
  1021fb:	c3                   	ret    

001021fc <__tcf_2>:
  1021fc:	55                   	push   %ebp
  1021fd:	89 e5                	mov    %esp,%ebp
  1021ff:	83 ec 18             	sub    $0x18,%esp
  102202:	c7 04 24 e0 60 13 00 	movl   $0x1360e0,(%esp)
  102209:	e8 46 a3 00 00       	call   10c554 <_ZN6kernel10processmgrD1Ev>
  10220e:	c9                   	leave  
  10220f:	c3                   	ret    

00102210 <__tcf_3>:
  102210:	55                   	push   %ebp
  102211:	89 e5                	mov    %esp,%ebp
  102213:	83 ec 18             	sub    $0x18,%esp
  102216:	c7 04 24 04 61 13 00 	movl   $0x136104,(%esp)
  10221d:	e8 7e a3 00 00       	call   10c5a0 <_ZN6kernel9threadmgrD1Ev>
  102222:	c9                   	leave  
  102223:	c3                   	ret    

00102224 <__tcf_4>:
  102224:	55                   	push   %ebp
  102225:	89 e5                	mov    %esp,%ebp
  102227:	83 ec 18             	sub    $0x18,%esp
  10222a:	c7 04 24 60 60 13 00 	movl   $0x136060,(%esp)
  102231:	e8 f4 9c 00 00       	call   10bf2a <_ZN6kernel9schedulerD1Ev>
  102236:	c9                   	leave  
  102237:	c3                   	ret    

00102238 <thread_entry>:
extern "C"
{
	static char chr  = 'A';
	
	void thread_entry(  )
	{
  102238:	55                   	push   %ebp
  102239:	89 e5                	mov    %esp,%ebp
  10223b:	83 ec 28             	sub    $0x28,%esp
		char my_chr = chr++;
  10223e:	0f b6 05 0c d0 10 00 	movzbl 0x10d00c,%eax
  102245:	8d 50 01             	lea    0x1(%eax),%edx
  102248:	88 15 0c d0 10 00    	mov    %dl,0x10d00c
  10224e:	88 45 f7             	mov    %al,-0x9(%ebp)

		while(1)
		{	
			kout << my_chr;
  102251:	0f be 45 f7          	movsbl -0x9(%ebp),%eax
  102255:	89 44 24 04          	mov    %eax,0x4(%esp)
  102259:	c7 04 24 50 30 13 00 	movl   $0x133050,(%esp)
  102260:	e8 7f e6 ff ff       	call   1008e4 <_ZN6kernel6outputlsEc>

			asm("int $0xFF" : : "a"(syscall::exit_thread));
  102265:	b8 11 00 00 00       	mov    $0x11,%eax
  10226a:	cd ff                	int    $0xff
		}
  10226c:	eb e3                	jmp    102251 <thread_entry+0x19>

0010226e <_ZZ4initENKUlPN3hal3x863cpu9cpu_stateEE_clES3_>:
	thrdmgr.add(thrd14);

	/*
	Initialise the syscall interface
	*/
	intr::handler(0xFF, []( cpu::cpu_state *cpu ) { return syscall::handle(cpu); });
  10226e:	55                   	push   %ebp
  10226f:	89 e5                	mov    %esp,%ebp
  102271:	83 ec 18             	sub    $0x18,%esp
  102274:	8b 45 0c             	mov    0xc(%ebp),%eax
  102277:	89 04 24             	mov    %eax,(%esp)
  10227a:	e8 e6 e8 ff ff       	call   100b65 <_ZN6kernel7syscall6handleEPN3hal3x863cpu9cpu_stateE>
  10227f:	c9                   	leave  
  102280:	c3                   	ret    
  102281:	90                   	nop

00102282 <_ZZ4initENUlPN3hal3x863cpu9cpu_stateEE_4_FUNES3_>:
  102282:	55                   	push   %ebp
  102283:	89 e5                	mov    %esp,%ebp
  102285:	83 ec 18             	sub    $0x18,%esp
  102288:	8b 45 08             	mov    0x8(%ebp),%eax
  10228b:	89 44 24 04          	mov    %eax,0x4(%esp)
  10228f:	c7 04 24 00 00 00 00 	movl   $0x0,(%esp)
  102296:	e8 d3 ff ff ff       	call   10226e <_ZZ4initENKUlPN3hal3x863cpu9cpu_stateEE_clES3_>
  10229b:	c9                   	leave  
  10229c:	c3                   	ret    
  10229d:	90                   	nop

0010229e <_ZZ4initENKUlPN3hal3x863cpu9cpu_stateEE_cvPFS3_S3_EEv>:
  10229e:	55                   	push   %ebp
  10229f:	89 e5                	mov    %esp,%ebp
  1022a1:	b8 82 22 10 00       	mov    $0x102282,%eax
  1022a6:	5d                   	pop    %ebp
  1022a7:	c3                   	ret    

001022a8 <_ZZ4initENKUlPN3hal3x863cpu9cpu_stateEE0_clES3_>:
	intr::handler(0xEE, []( cpu::cpu_state *cpu ) { kernel::scheduler &sched = kernel::scheduler::instance(); return sched.schedule(cpu); });
  1022a8:	55                   	push   %ebp
  1022a9:	89 e5                	mov    %esp,%ebp
  1022ab:	83 ec 28             	sub    $0x28,%esp
  1022ae:	e8 8a 9c 00 00       	call   10bf3d <_ZN6kernel9scheduler8instanceEv>
  1022b3:	89 45 f4             	mov    %eax,-0xc(%ebp)
  1022b6:	8b 45 0c             	mov    0xc(%ebp),%eax
  1022b9:	89 44 24 04          	mov    %eax,0x4(%esp)
  1022bd:	8b 45 f4             	mov    -0xc(%ebp),%eax
  1022c0:	89 04 24             	mov    %eax,(%esp)
  1022c3:	e8 48 f0 ff ff       	call   101310 <_ZN6kernel9scheduler8scheduleEPN3hal3x863cpu9cpu_stateE>
  1022c8:	c9                   	leave  
  1022c9:	c3                   	ret    

001022ca <_ZZ4initENUlPN3hal3x863cpu9cpu_stateEE0_4_FUNES3_>:
  1022ca:	55                   	push   %ebp
  1022cb:	89 e5                	mov    %esp,%ebp
  1022cd:	83 ec 18             	sub    $0x18,%esp
  1022d0:	8b 45 08             	mov    0x8(%ebp),%eax
  1022d3:	89 44 24 04          	mov    %eax,0x4(%esp)
  1022d7:	c7 04 24 00 00 00 00 	movl   $0x0,(%esp)
  1022de:	e8 c5 ff ff ff       	call   1022a8 <_ZZ4initENKUlPN3hal3x863cpu9cpu_stateEE0_clES3_>
  1022e3:	c9                   	leave  
  1022e4:	c3                   	ret    
  1022e5:	90                   	nop

001022e6 <_ZZ4initENKUlPN3hal3x863cpu9cpu_stateEE0_cvPFS3_S3_EEv>:
  1022e6:	55                   	push   %ebp
  1022e7:	89 e5                	mov    %esp,%ebp
  1022e9:	b8 ca 22 10 00       	mov    $0x1022ca,%eax
  1022ee:	5d                   	pop    %ebp
  1022ef:	c3                   	ret    

001022f0 <init>:
		}
	}
}

void init( multiboot::info *mbs, uint32_t mb_magic )
{
  1022f0:	55                   	push   %ebp
  1022f1:	89 e5                	mov    %esp,%ebp
  1022f3:	57                   	push   %edi
  1022f4:	56                   	push   %esi
  1022f5:	53                   	push   %ebx
  1022f6:	81 ec bc 02 00 00    	sub    $0x2bc,%esp
	kout << "QUARTUS " << arch_string << output::endl;
  1022fc:	8b 1d a4 d1 10 00    	mov    0x10d1a4,%ebx
  102302:	c7 44 24 04 00 e5 10 	movl   $0x10e500,0x4(%esp)
  102309:	00 
  10230a:	c7 04 24 50 30 13 00 	movl   $0x133050,(%esp)
  102311:	e8 a8 e7 ff ff       	call   100abe <_ZN6kernel6outputlsEPKc>
  102316:	89 5c 24 04          	mov    %ebx,0x4(%esp)
  10231a:	89 04 24             	mov    %eax,(%esp)
  10231d:	e8 9c e7 ff ff       	call   100abe <_ZN6kernel6outputlsEPKc>
  102322:	c7 44 24 04 d1 cb 10 	movl   $0x10cbd1,0x4(%esp)
  102329:	00 
  10232a:	89 04 24             	mov    %eax,(%esp)
  10232d:	e8 8c a8 00 00       	call   10cbbe <_ZN6kernel6outputlsEPFRS0_S1_E>

	#ifdef ARCH_USE_MULTIBOOT
	if(mb_magic != multiboot::magic)
  102332:	81 7d 0c 02 b0 ad 2b 	cmpl   $0x2badb002,0xc(%ebp)
  102339:	74 29                	je     102364 <init+0x74>
	{
		kout << "Error: no multiboot bootloader!" << output::endl;
  10233b:	c7 44 24 04 0c e5 10 	movl   $0x10e50c,0x4(%esp)
  102342:	00 
  102343:	c7 04 24 50 30 13 00 	movl   $0x133050,(%esp)
  10234a:	e8 6f e7 ff ff       	call   100abe <_ZN6kernel6outputlsEPKc>
  10234f:	c7 44 24 04 d1 cb 10 	movl   $0x10cbd1,0x4(%esp)
  102356:	00 
  102357:	89 04 24             	mov    %eax,(%esp)
  10235a:	e8 5f a8 00 00       	call   10cbbe <_ZN6kernel6outputlsEPFRS0_S1_E>
		cpu::halt();
  10235f:	e8 bc a1 00 00       	call   10c520 <_ZN3hal3x863cpu4haltEv>
	}

	switch(multiboot::error err = multiboot::check_mbs(mbs))
  102364:	8b 45 08             	mov    0x8(%ebp),%eax
  102367:	89 04 24             	mov    %eax,(%esp)
  10236a:	e8 19 16 00 00       	call   103988 <_ZN9multiboot9check_mbsEPNS_4infoE>
  10236f:	89 45 dc             	mov    %eax,-0x24(%ebp)
  102372:	8b 45 dc             	mov    -0x24(%ebp),%eax
  102375:	83 f8 02             	cmp    $0x2,%eax
  102378:	74 7f                	je     1023f9 <init+0x109>
  10237a:	83 f8 03             	cmp    $0x3,%eax
  10237d:	0f 84 e3 00 00 00    	je     102466 <init+0x176>
  102383:	83 f8 01             	cmp    $0x1,%eax
  102386:	0f 85 44 01 00 00    	jne    1024d0 <init+0x1e0>
	{
		case multiboot::error::no_mbs:
			kout << output::endl << "No multibootstructure! (" << output::hex << err << ")" << output::endl;
  10238c:	8b 5d dc             	mov    -0x24(%ebp),%ebx
  10238f:	c7 44 24 04 d1 cb 10 	movl   $0x10cbd1,0x4(%esp)
  102396:	00 
  102397:	c7 04 24 50 30 13 00 	movl   $0x133050,(%esp)
  10239e:	e8 1b a8 00 00       	call   10cbbe <_ZN6kernel6outputlsEPFRS0_S1_E>
  1023a3:	c7 44 24 04 2c e5 10 	movl   $0x10e52c,0x4(%esp)
  1023aa:	00 
  1023ab:	89 04 24             	mov    %eax,(%esp)
  1023ae:	e8 0b e7 ff ff       	call   100abe <_ZN6kernel6outputlsEPKc>
  1023b3:	c7 44 24 04 ef cb 10 	movl   $0x10cbef,0x4(%esp)
  1023ba:	00 
  1023bb:	89 04 24             	mov    %eax,(%esp)
  1023be:	e8 fb a7 00 00       	call   10cbbe <_ZN6kernel6outputlsEPFRS0_S1_E>
  1023c3:	89 5c 24 04          	mov    %ebx,0x4(%esp)
  1023c7:	89 04 24             	mov    %eax,(%esp)
  1023ca:	e8 a1 e5 ff ff       	call   100970 <_ZN6kernel6outputlsEi>
  1023cf:	c7 44 24 04 45 e5 10 	movl   $0x10e545,0x4(%esp)
  1023d6:	00 
  1023d7:	89 04 24             	mov    %eax,(%esp)
  1023da:	e8 df e6 ff ff       	call   100abe <_ZN6kernel6outputlsEPKc>
  1023df:	c7 44 24 04 d1 cb 10 	movl   $0x10cbd1,0x4(%esp)
  1023e6:	00 
  1023e7:	89 04 24             	mov    %eax,(%esp)
  1023ea:	e8 cf a7 00 00       	call   10cbbe <_ZN6kernel6outputlsEPFRS0_S1_E>
			cpu::halt();
  1023ef:	e8 2c a1 00 00       	call   10c520 <_ZN3hal3x863cpu4haltEv>
		break;
  1023f4:	e9 3b 01 00 00       	jmp    102534 <init+0x244>

		case multiboot::error::no_mbs_mods_addr:
			kout << output::endl << "No module structure! (" << output::hex << err << ")" << output::endl;
  1023f9:	8b 5d dc             	mov    -0x24(%ebp),%ebx
  1023fc:	c7 44 24 04 d1 cb 10 	movl   $0x10cbd1,0x4(%esp)
  102403:	00 
  102404:	c7 04 24 50 30 13 00 	movl   $0x133050,(%esp)
  10240b:	e8 ae a7 00 00       	call   10cbbe <_ZN6kernel6outputlsEPFRS0_S1_E>
  102410:	c7 44 24 04 47 e5 10 	movl   $0x10e547,0x4(%esp)
  102417:	00 
  102418:	89 04 24             	mov    %eax,(%esp)
  10241b:	e8 9e e6 ff ff       	call   100abe <_ZN6kernel6outputlsEPKc>
  102420:	c7 44 24 04 ef cb 10 	movl   $0x10cbef,0x4(%esp)
  102427:	00 
  102428:	89 04 24             	mov    %eax,(%esp)
  10242b:	e8 8e a7 00 00       	call   10cbbe <_ZN6kernel6outputlsEPFRS0_S1_E>
  102430:	89 5c 24 04          	mov    %ebx,0x4(%esp)
  102434:	89 04 24             	mov    %eax,(%esp)
  102437:	e8 34 e5 ff ff       	call   100970 <_ZN6kernel6outputlsEi>
  10243c:	c7 44 24 04 45 e5 10 	movl   $0x10e545,0x4(%esp)
  102443:	00 
  102444:	89 04 24             	mov    %eax,(%esp)
  102447:	e8 72 e6 ff ff       	call   100abe <_ZN6kernel6outputlsEPKc>
  10244c:	c7 44 24 04 d1 cb 10 	movl   $0x10cbd1,0x4(%esp)
  102453:	00 
  102454:	89 04 24             	mov    %eax,(%esp)
  102457:	e8 62 a7 00 00       	call   10cbbe <_ZN6kernel6outputlsEPFRS0_S1_E>
			cpu::halt();
  10245c:	e8 bf a0 00 00       	call   10c520 <_ZN3hal3x863cpu4haltEv>
		break;
  102461:	e9 ce 00 00 00       	jmp    102534 <init+0x244>
		
		case multiboot::error::no_mbs_mmap_addr:
			kout << output::endl << "No memory map! (" << output::hex << err << ")" << output::endl;
  102466:	8b 5d dc             	mov    -0x24(%ebp),%ebx
  102469:	c7 44 24 04 d1 cb 10 	movl   $0x10cbd1,0x4(%esp)
  102470:	00 
  102471:	c7 04 24 50 30 13 00 	movl   $0x133050,(%esp)
  102478:	e8 41 a7 00 00       	call   10cbbe <_ZN6kernel6outputlsEPFRS0_S1_E>
  10247d:	c7 44 24 04 5e e5 10 	movl   $0x10e55e,0x4(%esp)
  102484:	00 
  102485:	89 04 24             	mov    %eax,(%esp)
  102488:	e8 31 e6 ff ff       	call   100abe <_ZN6kernel6outputlsEPKc>
  10248d:	c7 44 24 04 ef cb 10 	movl   $0x10cbef,0x4(%esp)
  102494:	00 
  102495:	89 04 24             	mov    %eax,(%esp)
  102498:	e8 21 a7 00 00       	call   10cbbe <_ZN6kernel6outputlsEPFRS0_S1_E>
  10249d:	89 5c 24 04          	mov    %ebx,0x4(%esp)
  1024a1:	89 04 24             	mov    %eax,(%esp)
  1024a4:	e8 c7 e4 ff ff       	call   100970 <_ZN6kernel6outputlsEi>
  1024a9:	c7 44 24 04 45 e5 10 	movl   $0x10e545,0x4(%esp)
  1024b0:	00 
  1024b1:	89 04 24             	mov    %eax,(%esp)
  1024b4:	e8 05 e6 ff ff       	call   100abe <_ZN6kernel6outputlsEPKc>
  1024b9:	c7 44 24 04 d1 cb 10 	movl   $0x10cbd1,0x4(%esp)
  1024c0:	00 
  1024c1:	89 04 24             	mov    %eax,(%esp)
  1024c4:	e8 f5 a6 00 00       	call   10cbbe <_ZN6kernel6outputlsEPFRS0_S1_E>
			cpu::halt();
  1024c9:	e8 52 a0 00 00       	call   10c520 <_ZN3hal3x863cpu4haltEv>
		break;
  1024ce:	eb 64                	jmp    102534 <init+0x244>
		
		default:
			kout << output::endl << "check_mbs OK! (" << output::hex << err << ")" << output::endl;
  1024d0:	8b 5d dc             	mov    -0x24(%ebp),%ebx
  1024d3:	c7 44 24 04 d1 cb 10 	movl   $0x10cbd1,0x4(%esp)
  1024da:	00 
  1024db:	c7 04 24 50 30 13 00 	movl   $0x133050,(%esp)
  1024e2:	e8 d7 a6 00 00       	call   10cbbe <_ZN6kernel6outputlsEPFRS0_S1_E>
  1024e7:	c7 44 24 04 6f e5 10 	movl   $0x10e56f,0x4(%esp)
  1024ee:	00 
  1024ef:	89 04 24             	mov    %eax,(%esp)
  1024f2:	e8 c7 e5 ff ff       	call   100abe <_ZN6kernel6outputlsEPKc>
  1024f7:	c7 44 24 04 ef cb 10 	movl   $0x10cbef,0x4(%esp)
  1024fe:	00 
  1024ff:	89 04 24             	mov    %eax,(%esp)
  102502:	e8 b7 a6 00 00       	call   10cbbe <_ZN6kernel6outputlsEPFRS0_S1_E>
  102507:	89 5c 24 04          	mov    %ebx,0x4(%esp)
  10250b:	89 04 24             	mov    %eax,(%esp)
  10250e:	e8 5d e4 ff ff       	call   100970 <_ZN6kernel6outputlsEi>
  102513:	c7 44 24 04 45 e5 10 	movl   $0x10e545,0x4(%esp)
  10251a:	00 
  10251b:	89 04 24             	mov    %eax,(%esp)
  10251e:	e8 9b e5 ff ff       	call   100abe <_ZN6kernel6outputlsEPKc>
  102523:	c7 44 24 04 d1 cb 10 	movl   $0x10cbd1,0x4(%esp)
  10252a:	00 
  10252b:	89 04 24             	mov    %eax,(%esp)
  10252e:	e8 8b a6 00 00       	call   10cbbe <_ZN6kernel6outputlsEPFRS0_S1_E>
		break;
  102533:	90                   	nop
	}

	kout << output::endl << "Magic number   (eax): " << output::hex << mb_magic;
  102534:	c7 44 24 04 d1 cb 10 	movl   $0x10cbd1,0x4(%esp)
  10253b:	00 
  10253c:	c7 04 24 50 30 13 00 	movl   $0x133050,(%esp)
  102543:	e8 76 a6 00 00       	call   10cbbe <_ZN6kernel6outputlsEPFRS0_S1_E>
  102548:	c7 44 24 04 7f e5 10 	movl   $0x10e57f,0x4(%esp)
  10254f:	00 
  102550:	89 04 24             	mov    %eax,(%esp)
  102553:	e8 66 e5 ff ff       	call   100abe <_ZN6kernel6outputlsEPKc>
  102558:	c7 44 24 04 ef cb 10 	movl   $0x10cbef,0x4(%esp)
  10255f:	00 
  102560:	89 04 24             	mov    %eax,(%esp)
  102563:	e8 56 a6 00 00       	call   10cbbe <_ZN6kernel6outputlsEPFRS0_S1_E>
  102568:	8b 55 0c             	mov    0xc(%ebp),%edx
  10256b:	89 54 24 04          	mov    %edx,0x4(%esp)
  10256f:	89 04 24             	mov    %eax,(%esp)
  102572:	e8 13 e4 ff ff       	call   10098a <_ZN6kernel6outputlsEj>

	kout << output::endl << "Multiboot info (ebx): " << output::hex << mbs;
  102577:	c7 44 24 04 d1 cb 10 	movl   $0x10cbd1,0x4(%esp)
  10257e:	00 
  10257f:	c7 04 24 50 30 13 00 	movl   $0x133050,(%esp)
  102586:	e8 33 a6 00 00       	call   10cbbe <_ZN6kernel6outputlsEPFRS0_S1_E>
  10258b:	c7 44 24 04 96 e5 10 	movl   $0x10e596,0x4(%esp)
  102592:	00 
  102593:	89 04 24             	mov    %eax,(%esp)
  102596:	e8 23 e5 ff ff       	call   100abe <_ZN6kernel6outputlsEPKc>
  10259b:	c7 44 24 04 ef cb 10 	movl   $0x10cbef,0x4(%esp)
  1025a2:	00 
  1025a3:	89 04 24             	mov    %eax,(%esp)
  1025a6:	e8 13 a6 00 00       	call   10cbbe <_ZN6kernel6outputlsEPFRS0_S1_E>
  1025ab:	8b 55 08             	mov    0x8(%ebp),%edx
  1025ae:	89 54 24 04          	mov    %edx,0x4(%esp)
  1025b2:	89 04 24             	mov    %eax,(%esp)
  1025b5:	e8 bc e4 ff ff       	call   100a76 <_ZN6kernel6outputlsEPv>
	kout << output::endl << "flags:                " << output::hex << mbs->flags;
  1025ba:	8b 45 08             	mov    0x8(%ebp),%eax
  1025bd:	8b 18                	mov    (%eax),%ebx
  1025bf:	c7 44 24 04 d1 cb 10 	movl   $0x10cbd1,0x4(%esp)
  1025c6:	00 
  1025c7:	c7 04 24 50 30 13 00 	movl   $0x133050,(%esp)
  1025ce:	e8 eb a5 00 00       	call   10cbbe <_ZN6kernel6outputlsEPFRS0_S1_E>
  1025d3:	c7 44 24 04 ad e5 10 	movl   $0x10e5ad,0x4(%esp)
  1025da:	00 
  1025db:	89 04 24             	mov    %eax,(%esp)
  1025de:	e8 db e4 ff ff       	call   100abe <_ZN6kernel6outputlsEPKc>
  1025e3:	c7 44 24 04 ef cb 10 	movl   $0x10cbef,0x4(%esp)
  1025ea:	00 
  1025eb:	89 04 24             	mov    %eax,(%esp)
  1025ee:	e8 cb a5 00 00       	call   10cbbe <_ZN6kernel6outputlsEPFRS0_S1_E>
  1025f3:	89 5c 24 04          	mov    %ebx,0x4(%esp)
  1025f7:	89 04 24             	mov    %eax,(%esp)
  1025fa:	e8 8b e3 ff ff       	call   10098a <_ZN6kernel6outputlsEj>
	kout << output::endl << "mem_lower:            " << output::dec << mbs->mem_lower;
  1025ff:	8b 45 08             	mov    0x8(%ebp),%eax
  102602:	8b 58 04             	mov    0x4(%eax),%ebx
  102605:	c7 44 24 04 d1 cb 10 	movl   $0x10cbd1,0x4(%esp)
  10260c:	00 
  10260d:	c7 04 24 50 30 13 00 	movl   $0x133050,(%esp)
  102614:	e8 a5 a5 00 00       	call   10cbbe <_ZN6kernel6outputlsEPFRS0_S1_E>
  102619:	c7 44 24 04 c4 e5 10 	movl   $0x10e5c4,0x4(%esp)
  102620:	00 
  102621:	89 04 24             	mov    %eax,(%esp)
  102624:	e8 95 e4 ff ff       	call   100abe <_ZN6kernel6outputlsEPKc>
  102629:	c7 44 24 04 54 cc 10 	movl   $0x10cc54,0x4(%esp)
  102630:	00 
  102631:	89 04 24             	mov    %eax,(%esp)
  102634:	e8 85 a5 00 00       	call   10cbbe <_ZN6kernel6outputlsEPFRS0_S1_E>
  102639:	89 5c 24 04          	mov    %ebx,0x4(%esp)
  10263d:	89 04 24             	mov    %eax,(%esp)
  102640:	e8 45 e3 ff ff       	call   10098a <_ZN6kernel6outputlsEj>
	kout << output::endl << "mem_upper:            " << output::dec << mbs->mem_upper;
  102645:	8b 45 08             	mov    0x8(%ebp),%eax
  102648:	8b 58 08             	mov    0x8(%eax),%ebx
  10264b:	c7 44 24 04 d1 cb 10 	movl   $0x10cbd1,0x4(%esp)
  102652:	00 
  102653:	c7 04 24 50 30 13 00 	movl   $0x133050,(%esp)
  10265a:	e8 5f a5 00 00       	call   10cbbe <_ZN6kernel6outputlsEPFRS0_S1_E>
  10265f:	c7 44 24 04 db e5 10 	movl   $0x10e5db,0x4(%esp)
  102666:	00 
  102667:	89 04 24             	mov    %eax,(%esp)
  10266a:	e8 4f e4 ff ff       	call   100abe <_ZN6kernel6outputlsEPKc>
  10266f:	c7 44 24 04 54 cc 10 	movl   $0x10cc54,0x4(%esp)
  102676:	00 
  102677:	89 04 24             	mov    %eax,(%esp)
  10267a:	e8 3f a5 00 00       	call   10cbbe <_ZN6kernel6outputlsEPFRS0_S1_E>
  10267f:	89 5c 24 04          	mov    %ebx,0x4(%esp)
  102683:	89 04 24             	mov    %eax,(%esp)
  102686:	e8 ff e2 ff ff       	call   10098a <_ZN6kernel6outputlsEj>
	kout << output::endl << "bootdevice:           " << output::hex << mbs->bootdevice;
  10268b:	8b 45 08             	mov    0x8(%ebp),%eax
  10268e:	8b 58 0c             	mov    0xc(%eax),%ebx
  102691:	c7 44 24 04 d1 cb 10 	movl   $0x10cbd1,0x4(%esp)
  102698:	00 
  102699:	c7 04 24 50 30 13 00 	movl   $0x133050,(%esp)
  1026a0:	e8 19 a5 00 00       	call   10cbbe <_ZN6kernel6outputlsEPFRS0_S1_E>
  1026a5:	c7 44 24 04 f2 e5 10 	movl   $0x10e5f2,0x4(%esp)
  1026ac:	00 
  1026ad:	89 04 24             	mov    %eax,(%esp)
  1026b0:	e8 09 e4 ff ff       	call   100abe <_ZN6kernel6outputlsEPKc>
  1026b5:	c7 44 24 04 ef cb 10 	movl   $0x10cbef,0x4(%esp)
  1026bc:	00 
  1026bd:	89 04 24             	mov    %eax,(%esp)
  1026c0:	e8 f9 a4 00 00       	call   10cbbe <_ZN6kernel6outputlsEPFRS0_S1_E>
  1026c5:	89 5c 24 04          	mov    %ebx,0x4(%esp)
  1026c9:	89 04 24             	mov    %eax,(%esp)
  1026cc:	e8 b9 e2 ff ff       	call   10098a <_ZN6kernel6outputlsEj>
	kout << output::endl << "cmdline:              " << (const char*)mbs->cmdline;
  1026d1:	8b 45 08             	mov    0x8(%ebp),%eax
  1026d4:	8b 40 10             	mov    0x10(%eax),%eax
  1026d7:	89 c3                	mov    %eax,%ebx
  1026d9:	c7 44 24 04 d1 cb 10 	movl   $0x10cbd1,0x4(%esp)
  1026e0:	00 
  1026e1:	c7 04 24 50 30 13 00 	movl   $0x133050,(%esp)
  1026e8:	e8 d1 a4 00 00       	call   10cbbe <_ZN6kernel6outputlsEPFRS0_S1_E>
  1026ed:	c7 44 24 04 09 e6 10 	movl   $0x10e609,0x4(%esp)
  1026f4:	00 
  1026f5:	89 04 24             	mov    %eax,(%esp)
  1026f8:	e8 c1 e3 ff ff       	call   100abe <_ZN6kernel6outputlsEPKc>
  1026fd:	89 5c 24 04          	mov    %ebx,0x4(%esp)
  102701:	89 04 24             	mov    %eax,(%esp)
  102704:	e8 b5 e3 ff ff       	call   100abe <_ZN6kernel6outputlsEPKc>
	kout << output::endl << "mods_count:           " << output::dec << mbs->mods_count;
  102709:	8b 45 08             	mov    0x8(%ebp),%eax
  10270c:	8b 58 14             	mov    0x14(%eax),%ebx
  10270f:	c7 44 24 04 d1 cb 10 	movl   $0x10cbd1,0x4(%esp)
  102716:	00 
  102717:	c7 04 24 50 30 13 00 	movl   $0x133050,(%esp)
  10271e:	e8 9b a4 00 00       	call   10cbbe <_ZN6kernel6outputlsEPFRS0_S1_E>
  102723:	c7 44 24 04 20 e6 10 	movl   $0x10e620,0x4(%esp)
  10272a:	00 
  10272b:	89 04 24             	mov    %eax,(%esp)
  10272e:	e8 8b e3 ff ff       	call   100abe <_ZN6kernel6outputlsEPKc>
  102733:	c7 44 24 04 54 cc 10 	movl   $0x10cc54,0x4(%esp)
  10273a:	00 
  10273b:	89 04 24             	mov    %eax,(%esp)
  10273e:	e8 7b a4 00 00       	call   10cbbe <_ZN6kernel6outputlsEPFRS0_S1_E>
  102743:	89 5c 24 04          	mov    %ebx,0x4(%esp)
  102747:	89 04 24             	mov    %eax,(%esp)
  10274a:	e8 3b e2 ff ff       	call   10098a <_ZN6kernel6outputlsEj>
	kout << output::endl << "mods_addr:            " << output::hex << mbs->mods_addr;
  10274f:	8b 45 08             	mov    0x8(%ebp),%eax
  102752:	8b 58 18             	mov    0x18(%eax),%ebx
  102755:	c7 44 24 04 d1 cb 10 	movl   $0x10cbd1,0x4(%esp)
  10275c:	00 
  10275d:	c7 04 24 50 30 13 00 	movl   $0x133050,(%esp)
  102764:	e8 55 a4 00 00       	call   10cbbe <_ZN6kernel6outputlsEPFRS0_S1_E>
  102769:	c7 44 24 04 37 e6 10 	movl   $0x10e637,0x4(%esp)
  102770:	00 
  102771:	89 04 24             	mov    %eax,(%esp)
  102774:	e8 45 e3 ff ff       	call   100abe <_ZN6kernel6outputlsEPKc>
  102779:	c7 44 24 04 ef cb 10 	movl   $0x10cbef,0x4(%esp)
  102780:	00 
  102781:	89 04 24             	mov    %eax,(%esp)
  102784:	e8 35 a4 00 00       	call   10cbbe <_ZN6kernel6outputlsEPFRS0_S1_E>
  102789:	89 5c 24 04          	mov    %ebx,0x4(%esp)
  10278d:	89 04 24             	mov    %eax,(%esp)
  102790:	e8 f5 e1 ff ff       	call   10098a <_ZN6kernel6outputlsEj>
	kout << output::endl << "mmap_length:          " << output::dec << mbs->mmap_length;
  102795:	8b 45 08             	mov    0x8(%ebp),%eax
  102798:	8b 58 2c             	mov    0x2c(%eax),%ebx
  10279b:	c7 44 24 04 d1 cb 10 	movl   $0x10cbd1,0x4(%esp)
  1027a2:	00 
  1027a3:	c7 04 24 50 30 13 00 	movl   $0x133050,(%esp)
  1027aa:	e8 0f a4 00 00       	call   10cbbe <_ZN6kernel6outputlsEPFRS0_S1_E>
  1027af:	c7 44 24 04 4e e6 10 	movl   $0x10e64e,0x4(%esp)
  1027b6:	00 
  1027b7:	89 04 24             	mov    %eax,(%esp)
  1027ba:	e8 ff e2 ff ff       	call   100abe <_ZN6kernel6outputlsEPKc>
  1027bf:	c7 44 24 04 54 cc 10 	movl   $0x10cc54,0x4(%esp)
  1027c6:	00 
  1027c7:	89 04 24             	mov    %eax,(%esp)
  1027ca:	e8 ef a3 00 00       	call   10cbbe <_ZN6kernel6outputlsEPFRS0_S1_E>
  1027cf:	89 5c 24 04          	mov    %ebx,0x4(%esp)
  1027d3:	89 04 24             	mov    %eax,(%esp)
  1027d6:	e8 af e1 ff ff       	call   10098a <_ZN6kernel6outputlsEj>
	kout << output::endl << "mmap_addr:            " << output::hex << mbs->mmap_addr;
  1027db:	8b 45 08             	mov    0x8(%ebp),%eax
  1027de:	8b 58 30             	mov    0x30(%eax),%ebx
  1027e1:	c7 44 24 04 d1 cb 10 	movl   $0x10cbd1,0x4(%esp)
  1027e8:	00 
  1027e9:	c7 04 24 50 30 13 00 	movl   $0x133050,(%esp)
  1027f0:	e8 c9 a3 00 00       	call   10cbbe <_ZN6kernel6outputlsEPFRS0_S1_E>
  1027f5:	c7 44 24 04 65 e6 10 	movl   $0x10e665,0x4(%esp)
  1027fc:	00 
  1027fd:	89 04 24             	mov    %eax,(%esp)
  102800:	e8 b9 e2 ff ff       	call   100abe <_ZN6kernel6outputlsEPKc>
  102805:	c7 44 24 04 ef cb 10 	movl   $0x10cbef,0x4(%esp)
  10280c:	00 
  10280d:	89 04 24             	mov    %eax,(%esp)
  102810:	e8 a9 a3 00 00       	call   10cbbe <_ZN6kernel6outputlsEPFRS0_S1_E>
  102815:	89 5c 24 04          	mov    %ebx,0x4(%esp)
  102819:	89 04 24             	mov    %eax,(%esp)
  10281c:	e8 69 e1 ff ff       	call   10098a <_ZN6kernel6outputlsEj>
	kout << output::endl << "boot_loader_name:     " << (const char*)mbs->boot_loader_name << output::endl;
  102821:	8b 45 08             	mov    0x8(%ebp),%eax
  102824:	8b 40 40             	mov    0x40(%eax),%eax
  102827:	89 c3                	mov    %eax,%ebx
  102829:	c7 44 24 04 d1 cb 10 	movl   $0x10cbd1,0x4(%esp)
  102830:	00 
  102831:	c7 04 24 50 30 13 00 	movl   $0x133050,(%esp)
  102838:	e8 81 a3 00 00       	call   10cbbe <_ZN6kernel6outputlsEPFRS0_S1_E>
  10283d:	c7 44 24 04 7c e6 10 	movl   $0x10e67c,0x4(%esp)
  102844:	00 
  102845:	89 04 24             	mov    %eax,(%esp)
  102848:	e8 71 e2 ff ff       	call   100abe <_ZN6kernel6outputlsEPKc>
  10284d:	89 5c 24 04          	mov    %ebx,0x4(%esp)
  102851:	89 04 24             	mov    %eax,(%esp)
  102854:	e8 65 e2 ff ff       	call   100abe <_ZN6kernel6outputlsEPKc>
  102859:	c7 44 24 04 d1 cb 10 	movl   $0x10cbd1,0x4(%esp)
  102860:	00 
  102861:	89 04 24             	mov    %eax,(%esp)
  102864:	e8 55 a3 00 00       	call   10cbbe <_ZN6kernel6outputlsEPFRS0_S1_E>

	#if defined(ARCH_X86) || defined(ARCH_X64)
	/*
	Initialise the GDT
	*/
	gdt &gdt = gdt::instance();
  102869:	e8 72 9f 00 00       	call   10c7e0 <_ZN3hal3x863gdt8instanceEv>
  10286e:	89 45 d8             	mov    %eax,-0x28(%ebp)
	gdt.init();
  102871:	8b 45 d8             	mov    -0x28(%ebp),%eax
  102874:	89 04 24             	mov    %eax,(%esp)
  102877:	e8 d4 67 00 00       	call   109050 <_ZN3hal3x863gdt4initEv>
	gdt.load();
  10287c:	8b 45 d8             	mov    -0x28(%ebp),%eax
  10287f:	89 04 24             	mov    %eax,(%esp)
  102882:	e8 db 68 00 00       	call   109162 <_ZN3hal3x863gdt4loadEv>

	/*
	Initialise the IDT
	*/
	idt &idt = idt::instance();
  102887:	e8 89 a3 00 00       	call   10cc15 <_ZN3hal3x863idt8instanceEv>
  10288c:	89 45 d4             	mov    %eax,-0x2c(%ebp)
	idt.init();
  10288f:	8b 45 d4             	mov    -0x2c(%ebp),%eax
  102892:	89 04 24             	mov    %eax,(%esp)
  102895:	e8 20 34 00 00       	call   105cba <_ZN3hal3x863idt4initEv>
	idt.load();
  10289a:	8b 45 d4             	mov    -0x2c(%ebp),%eax
  10289d:	89 04 24             	mov    %eax,(%esp)
  1028a0:	e8 f3 5e 00 00       	call   108798 <_ZN3hal3x863idt4loadEv>
	#endif

	/*
	Initialise the PIC
	*/
	pic &pic = pic::instance();
  1028a5:	e8 52 96 00 00       	call   10befc <_ZN3hal3x863pic8instanceEv>
  1028aa:	89 45 d0             	mov    %eax,-0x30(%ebp)
	pic.init();
  1028ad:	8b 45 d0             	mov    -0x30(%ebp),%eax
  1028b0:	89 04 24             	mov    %eax,(%esp)
  1028b3:	e8 58 18 00 00       	call   104110 <_ZN3hal3x863pic4initEv>
	*/

	/*
	Initialise the Physical Memory Manager
	*/
	pmm &pmm = pmm::instance();
  1028b8:	e8 6a 9c 00 00       	call   10c527 <_ZN3hal3x863pmm8instanceEv>
  1028bd:	89 45 cc             	mov    %eax,-0x34(%ebp)

	switch(pmm::error err = pmm.init(mbs))
  1028c0:	8b 45 08             	mov    0x8(%ebp),%eax
  1028c3:	89 44 24 04          	mov    %eax,0x4(%esp)
  1028c7:	8b 45 cc             	mov    -0x34(%ebp),%eax
  1028ca:	89 04 24             	mov    %eax,(%esp)
  1028cd:	e8 02 60 00 00       	call   1088d4 <_ZN3hal3x863pmm4initEPN9multiboot4infoE>
  1028d2:	89 45 c8             	mov    %eax,-0x38(%ebp)
  1028d5:	8b 45 c8             	mov    -0x38(%ebp),%eax
  1028d8:	83 f8 01             	cmp    $0x1,%eax
  1028db:	74 0a                	je     1028e7 <init+0x5f7>
  1028dd:	83 f8 02             	cmp    $0x2,%eax
  1028e0:	74 72                	je     102954 <init+0x664>
  1028e2:	e9 d7 00 00 00       	jmp    1029be <init+0x6ce>
	{
		case pmm::error::no_kernel_addr:
			kout << output::endl << "No kernel address! (" << output::hex << err << ")" << output::endl;
  1028e7:	8b 5d c8             	mov    -0x38(%ebp),%ebx
  1028ea:	c7 44 24 04 d1 cb 10 	movl   $0x10cbd1,0x4(%esp)
  1028f1:	00 
  1028f2:	c7 04 24 50 30 13 00 	movl   $0x133050,(%esp)
  1028f9:	e8 c0 a2 00 00       	call   10cbbe <_ZN6kernel6outputlsEPFRS0_S1_E>
  1028fe:	c7 44 24 04 93 e6 10 	movl   $0x10e693,0x4(%esp)
  102905:	00 
  102906:	89 04 24             	mov    %eax,(%esp)
  102909:	e8 b0 e1 ff ff       	call   100abe <_ZN6kernel6outputlsEPKc>
  10290e:	c7 44 24 04 ef cb 10 	movl   $0x10cbef,0x4(%esp)
  102915:	00 
  102916:	89 04 24             	mov    %eax,(%esp)
  102919:	e8 a0 a2 00 00       	call   10cbbe <_ZN6kernel6outputlsEPFRS0_S1_E>
  10291e:	89 5c 24 04          	mov    %ebx,0x4(%esp)
  102922:	89 04 24             	mov    %eax,(%esp)
  102925:	e8 46 e0 ff ff       	call   100970 <_ZN6kernel6outputlsEi>
  10292a:	c7 44 24 04 45 e5 10 	movl   $0x10e545,0x4(%esp)
  102931:	00 
  102932:	89 04 24             	mov    %eax,(%esp)
  102935:	e8 84 e1 ff ff       	call   100abe <_ZN6kernel6outputlsEPKc>
  10293a:	c7 44 24 04 d1 cb 10 	movl   $0x10cbd1,0x4(%esp)
  102941:	00 
  102942:	89 04 24             	mov    %eax,(%esp)
  102945:	e8 74 a2 00 00       	call   10cbbe <_ZN6kernel6outputlsEPFRS0_S1_E>
			cpu::halt();
  10294a:	e8 d1 9b 00 00       	call   10c520 <_ZN3hal3x863cpu4haltEv>
		break;
  10294f:	e9 ce 00 00 00       	jmp    102a22 <init+0x732>

		case pmm::error::no_memory_map:
			kout << output::endl << "No memory map! (" << output::hex << err << ")" << output::endl;
  102954:	8b 5d c8             	mov    -0x38(%ebp),%ebx
  102957:	c7 44 24 04 d1 cb 10 	movl   $0x10cbd1,0x4(%esp)
  10295e:	00 
  10295f:	c7 04 24 50 30 13 00 	movl   $0x133050,(%esp)
  102966:	e8 53 a2 00 00       	call   10cbbe <_ZN6kernel6outputlsEPFRS0_S1_E>
  10296b:	c7 44 24 04 5e e5 10 	movl   $0x10e55e,0x4(%esp)
  102972:	00 
  102973:	89 04 24             	mov    %eax,(%esp)
  102976:	e8 43 e1 ff ff       	call   100abe <_ZN6kernel6outputlsEPKc>
  10297b:	c7 44 24 04 ef cb 10 	movl   $0x10cbef,0x4(%esp)
  102982:	00 
  102983:	89 04 24             	mov    %eax,(%esp)
  102986:	e8 33 a2 00 00       	call   10cbbe <_ZN6kernel6outputlsEPFRS0_S1_E>
  10298b:	89 5c 24 04          	mov    %ebx,0x4(%esp)
  10298f:	89 04 24             	mov    %eax,(%esp)
  102992:	e8 d9 df ff ff       	call   100970 <_ZN6kernel6outputlsEi>
  102997:	c7 44 24 04 45 e5 10 	movl   $0x10e545,0x4(%esp)
  10299e:	00 
  10299f:	89 04 24             	mov    %eax,(%esp)
  1029a2:	e8 17 e1 ff ff       	call   100abe <_ZN6kernel6outputlsEPKc>
  1029a7:	c7 44 24 04 d1 cb 10 	movl   $0x10cbd1,0x4(%esp)
  1029ae:	00 
  1029af:	89 04 24             	mov    %eax,(%esp)
  1029b2:	e8 07 a2 00 00       	call   10cbbe <_ZN6kernel6outputlsEPFRS0_S1_E>
			cpu::halt();
  1029b7:	e8 64 9b 00 00       	call   10c520 <_ZN3hal3x863cpu4haltEv>
		break;
  1029bc:	eb 64                	jmp    102a22 <init+0x732>

		default:
			kout << output::endl << "pmm init OK! (" << output::hex << err << ")" << output::endl;
  1029be:	8b 5d c8             	mov    -0x38(%ebp),%ebx
  1029c1:	c7 44 24 04 d1 cb 10 	movl   $0x10cbd1,0x4(%esp)
  1029c8:	00 
  1029c9:	c7 04 24 50 30 13 00 	movl   $0x133050,(%esp)
  1029d0:	e8 e9 a1 00 00       	call   10cbbe <_ZN6kernel6outputlsEPFRS0_S1_E>
  1029d5:	c7 44 24 04 a8 e6 10 	movl   $0x10e6a8,0x4(%esp)
  1029dc:	00 
  1029dd:	89 04 24             	mov    %eax,(%esp)
  1029e0:	e8 d9 e0 ff ff       	call   100abe <_ZN6kernel6outputlsEPKc>
  1029e5:	c7 44 24 04 ef cb 10 	movl   $0x10cbef,0x4(%esp)
  1029ec:	00 
  1029ed:	89 04 24             	mov    %eax,(%esp)
  1029f0:	e8 c9 a1 00 00       	call   10cbbe <_ZN6kernel6outputlsEPFRS0_S1_E>
  1029f5:	89 5c 24 04          	mov    %ebx,0x4(%esp)
  1029f9:	89 04 24             	mov    %eax,(%esp)
  1029fc:	e8 6f df ff ff       	call   100970 <_ZN6kernel6outputlsEi>
  102a01:	c7 44 24 04 45 e5 10 	movl   $0x10e545,0x4(%esp)
  102a08:	00 
  102a09:	89 04 24             	mov    %eax,(%esp)
  102a0c:	e8 ad e0 ff ff       	call   100abe <_ZN6kernel6outputlsEPKc>
  102a11:	c7 44 24 04 d1 cb 10 	movl   $0x10cbd1,0x4(%esp)
  102a18:	00 
  102a19:	89 04 24             	mov    %eax,(%esp)
  102a1c:	e8 9d a1 00 00       	call   10cbbe <_ZN6kernel6outputlsEPFRS0_S1_E>
		break;
  102a21:	90                   	nop
	}

	/*
	Create virtual memory context for the kernel
	*/
	context kernel_context = context();
  102a22:	8d 85 78 ff ff ff    	lea    -0x88(%ebp),%eax
  102a28:	89 04 24             	mov    %eax,(%esp)
  102a2b:	e8 3e 27 00 00       	call   10516e <_ZN3hal3x867contextC1Ev>

	/*
	Initialise the Virtual Memory Manager
	*/
	switch(vmm::error err = vmmgr().init(&kernel_context, vmm::kernel_space_base, vmm::kernel_space_limit))
  102a30:	e8 eb d5 ff ff       	call   100020 <_ZN6kernel5vmmgrEv>
  102a35:	c7 44 24 0c ff ff ff 	movl   $0x3ffffff,0xc(%esp)
  102a3c:	03 
  102a3d:	c7 44 24 08 00 10 00 	movl   $0x1000,0x8(%esp)
  102a44:	00 
  102a45:	8d 95 78 ff ff ff    	lea    -0x88(%ebp),%edx
  102a4b:	89 54 24 04          	mov    %edx,0x4(%esp)
  102a4f:	89 04 24             	mov    %eax,(%esp)
  102a52:	e8 3d 1a 00 00       	call   104494 <_ZN3hal3x863vmm4initEPNS0_7contextEjj>
  102a57:	89 45 c4             	mov    %eax,-0x3c(%ebp)
  102a5a:	8b 45 c4             	mov    -0x3c(%ebp),%eax
  102a5d:	83 f8 01             	cmp    $0x1,%eax
  102a60:	75 6a                	jne    102acc <init+0x7dc>
	{
		case vmm::error::no_kernel_addr:
			kout << output::endl << "No kernel address! (" << output::hex << err << ")" << output::endl;
  102a62:	8b 5d c4             	mov    -0x3c(%ebp),%ebx
  102a65:	c7 44 24 04 d1 cb 10 	movl   $0x10cbd1,0x4(%esp)
  102a6c:	00 
  102a6d:	c7 04 24 50 30 13 00 	movl   $0x133050,(%esp)
  102a74:	e8 45 a1 00 00       	call   10cbbe <_ZN6kernel6outputlsEPFRS0_S1_E>
  102a79:	c7 44 24 04 93 e6 10 	movl   $0x10e693,0x4(%esp)
  102a80:	00 
  102a81:	89 04 24             	mov    %eax,(%esp)
  102a84:	e8 35 e0 ff ff       	call   100abe <_ZN6kernel6outputlsEPKc>
  102a89:	c7 44 24 04 ef cb 10 	movl   $0x10cbef,0x4(%esp)
  102a90:	00 
  102a91:	89 04 24             	mov    %eax,(%esp)
  102a94:	e8 25 a1 00 00       	call   10cbbe <_ZN6kernel6outputlsEPFRS0_S1_E>
  102a99:	89 5c 24 04          	mov    %ebx,0x4(%esp)
  102a9d:	89 04 24             	mov    %eax,(%esp)
  102aa0:	e8 cb de ff ff       	call   100970 <_ZN6kernel6outputlsEi>
  102aa5:	c7 44 24 04 45 e5 10 	movl   $0x10e545,0x4(%esp)
  102aac:	00 
  102aad:	89 04 24             	mov    %eax,(%esp)
  102ab0:	e8 09 e0 ff ff       	call   100abe <_ZN6kernel6outputlsEPKc>
  102ab5:	c7 44 24 04 d1 cb 10 	movl   $0x10cbd1,0x4(%esp)
  102abc:	00 
  102abd:	89 04 24             	mov    %eax,(%esp)
  102ac0:	e8 f9 a0 00 00       	call   10cbbe <_ZN6kernel6outputlsEPFRS0_S1_E>
			cpu::halt();
  102ac5:	e8 56 9a 00 00       	call   10c520 <_ZN3hal3x863cpu4haltEv>
		break;
  102aca:	eb 64                	jmp    102b30 <init+0x840>

		default:
			kout << output::endl << "vmm init OK! (" << output::hex << err << ")" << output::endl;
  102acc:	8b 5d c4             	mov    -0x3c(%ebp),%ebx
  102acf:	c7 44 24 04 d1 cb 10 	movl   $0x10cbd1,0x4(%esp)
  102ad6:	00 
  102ad7:	c7 04 24 50 30 13 00 	movl   $0x133050,(%esp)
  102ade:	e8 db a0 00 00       	call   10cbbe <_ZN6kernel6outputlsEPFRS0_S1_E>
  102ae3:	c7 44 24 04 b7 e6 10 	movl   $0x10e6b7,0x4(%esp)
  102aea:	00 
  102aeb:	89 04 24             	mov    %eax,(%esp)
  102aee:	e8 cb df ff ff       	call   100abe <_ZN6kernel6outputlsEPKc>
  102af3:	c7 44 24 04 ef cb 10 	movl   $0x10cbef,0x4(%esp)
  102afa:	00 
  102afb:	89 04 24             	mov    %eax,(%esp)
  102afe:	e8 bb a0 00 00       	call   10cbbe <_ZN6kernel6outputlsEPFRS0_S1_E>
  102b03:	89 5c 24 04          	mov    %ebx,0x4(%esp)
  102b07:	89 04 24             	mov    %eax,(%esp)
  102b0a:	e8 61 de ff ff       	call   100970 <_ZN6kernel6outputlsEi>
  102b0f:	c7 44 24 04 45 e5 10 	movl   $0x10e545,0x4(%esp)
  102b16:	00 
  102b17:	89 04 24             	mov    %eax,(%esp)
  102b1a:	e8 9f df ff ff       	call   100abe <_ZN6kernel6outputlsEPKc>
  102b1f:	c7 44 24 04 d1 cb 10 	movl   $0x10cbd1,0x4(%esp)
  102b26:	00 
  102b27:	89 04 24             	mov    %eax,(%esp)
  102b2a:	e8 8f a0 00 00       	call   10cbbe <_ZN6kernel6outputlsEPFRS0_S1_E>
		break;
  102b2f:	90                   	nop
	}

	/*
	Video-memory mapping
	*/
	vmmgr().map(memory::videomem, memory::videomem, vmm::present | vmm::write);
  102b30:	e8 eb d4 ff ff       	call   100020 <_ZN6kernel5vmmgrEv>
  102b35:	c7 44 24 0c 03 00 00 	movl   $0x3,0xc(%esp)
  102b3c:	00 
  102b3d:	c7 44 24 08 00 80 0b 	movl   $0xb8000,0x8(%esp)
  102b44:	00 
  102b45:	c7 44 24 04 00 80 0b 	movl   $0xb8000,0x4(%esp)
  102b4c:	00 
  102b4d:	89 04 24             	mov    %eax,(%esp)
  102b50:	e8 6f 1e 00 00       	call   1049c4 <_ZN3hal3x863vmm3mapEjjj>

	/*
	Multibootinformation mapping
	*/
	vmmgr().map(align4k((uintptr_t)mbs), align4k((uintptr_t)mbs), vmm::present);
  102b55:	8b 45 08             	mov    0x8(%ebp),%eax
  102b58:	25 00 f0 ff ff       	and    $0xfffff000,%eax
  102b5d:	89 c6                	mov    %eax,%esi
  102b5f:	8b 45 08             	mov    0x8(%ebp),%eax
  102b62:	25 00 f0 ff ff       	and    $0xfffff000,%eax
  102b67:	89 c3                	mov    %eax,%ebx
  102b69:	e8 b2 d4 ff ff       	call   100020 <_ZN6kernel5vmmgrEv>
  102b6e:	c7 44 24 0c 01 00 00 	movl   $0x1,0xc(%esp)
  102b75:	00 
  102b76:	89 74 24 08          	mov    %esi,0x8(%esp)
  102b7a:	89 5c 24 04          	mov    %ebx,0x4(%esp)
  102b7e:	89 04 24             	mov    %eax,(%esp)
  102b81:	e8 3e 1e 00 00       	call   1049c4 <_ZN3hal3x863vmm3mapEjjj>
	vmmgr().map(align4k((uintptr_t)mbs->cmdline), align4k((uintptr_t)mbs->cmdline), vmm::present);
  102b86:	8b 45 08             	mov    0x8(%ebp),%eax
  102b89:	8b 40 10             	mov    0x10(%eax),%eax
  102b8c:	25 00 f0 ff ff       	and    $0xfffff000,%eax
  102b91:	89 c6                	mov    %eax,%esi
  102b93:	8b 45 08             	mov    0x8(%ebp),%eax
  102b96:	8b 40 10             	mov    0x10(%eax),%eax
  102b99:	25 00 f0 ff ff       	and    $0xfffff000,%eax
  102b9e:	89 c3                	mov    %eax,%ebx
  102ba0:	e8 7b d4 ff ff       	call   100020 <_ZN6kernel5vmmgrEv>
  102ba5:	c7 44 24 0c 01 00 00 	movl   $0x1,0xc(%esp)
  102bac:	00 
  102bad:	89 74 24 08          	mov    %esi,0x8(%esp)
  102bb1:	89 5c 24 04          	mov    %ebx,0x4(%esp)
  102bb5:	89 04 24             	mov    %eax,(%esp)
  102bb8:	e8 07 1e 00 00       	call   1049c4 <_ZN3hal3x863vmm3mapEjjj>
	vmmgr().map(align4k((uintptr_t)mbs->boot_loader_name), align4k((uintptr_t)mbs->boot_loader_name), vmm::present);
  102bbd:	8b 45 08             	mov    0x8(%ebp),%eax
  102bc0:	8b 40 40             	mov    0x40(%eax),%eax
  102bc3:	25 00 f0 ff ff       	and    $0xfffff000,%eax
  102bc8:	89 c6                	mov    %eax,%esi
  102bca:	8b 45 08             	mov    0x8(%ebp),%eax
  102bcd:	8b 40 40             	mov    0x40(%eax),%eax
  102bd0:	25 00 f0 ff ff       	and    $0xfffff000,%eax
  102bd5:	89 c3                	mov    %eax,%ebx
  102bd7:	e8 44 d4 ff ff       	call   100020 <_ZN6kernel5vmmgrEv>
  102bdc:	c7 44 24 0c 01 00 00 	movl   $0x1,0xc(%esp)
  102be3:	00 
  102be4:	89 74 24 08          	mov    %esi,0x8(%esp)
  102be8:	89 5c 24 04          	mov    %ebx,0x4(%esp)
  102bec:	89 04 24             	mov    %eax,(%esp)
  102bef:	e8 d0 1d 00 00       	call   1049c4 <_ZN3hal3x863vmm3mapEjjj>
	vmmgr().map(align4k((uintptr_t)mbs->mods_addr), align4k((uintptr_t)mbs->mods_addr), vmm::present, ((sizeof(multiboot::mods) * mbs->mods_count + 4095) / 4096));
  102bf4:	8b 45 08             	mov    0x8(%ebp),%eax
  102bf7:	8b 40 14             	mov    0x14(%eax),%eax
  102bfa:	c1 e0 04             	shl    $0x4,%eax
  102bfd:	05 ff 0f 00 00       	add    $0xfff,%eax
  102c02:	c1 e8 0c             	shr    $0xc,%eax
  102c05:	89 c7                	mov    %eax,%edi
  102c07:	8b 45 08             	mov    0x8(%ebp),%eax
  102c0a:	8b 40 18             	mov    0x18(%eax),%eax
  102c0d:	25 00 f0 ff ff       	and    $0xfffff000,%eax
  102c12:	89 c6                	mov    %eax,%esi
  102c14:	8b 45 08             	mov    0x8(%ebp),%eax
  102c17:	8b 40 18             	mov    0x18(%eax),%eax
  102c1a:	25 00 f0 ff ff       	and    $0xfffff000,%eax
  102c1f:	89 c3                	mov    %eax,%ebx
  102c21:	e8 fa d3 ff ff       	call   100020 <_ZN6kernel5vmmgrEv>
  102c26:	89 7c 24 10          	mov    %edi,0x10(%esp)
  102c2a:	c7 44 24 0c 01 00 00 	movl   $0x1,0xc(%esp)
  102c31:	00 
  102c32:	89 74 24 08          	mov    %esi,0x8(%esp)
  102c36:	89 5c 24 04          	mov    %ebx,0x4(%esp)
  102c3a:	89 04 24             	mov    %eax,(%esp)
  102c3d:	e8 fc 1d 00 00       	call   104a3e <_ZN3hal3x863vmm3mapEjjjj>

	multiboot::mods *mods = (multiboot::mods*)mbs->mods_addr;
  102c42:	8b 45 08             	mov    0x8(%ebp),%eax
  102c45:	8b 40 18             	mov    0x18(%eax),%eax
  102c48:	89 45 c0             	mov    %eax,-0x40(%ebp)

	for(size_t index = 0; index < mbs->mods_count; index++)
  102c4b:	c7 45 e4 00 00 00 00 	movl   $0x0,-0x1c(%ebp)
  102c52:	eb 57                	jmp    102cab <init+0x9bb>
	{
		for(uintptr_t addr = mods[index].mod_start; addr < mods[index].mod_end; addr += memory::page_size_byte)
  102c54:	8b 45 e4             	mov    -0x1c(%ebp),%eax
  102c57:	c1 e0 04             	shl    $0x4,%eax
  102c5a:	89 c2                	mov    %eax,%edx
  102c5c:	8b 45 c0             	mov    -0x40(%ebp),%eax
  102c5f:	01 d0                	add    %edx,%eax
  102c61:	8b 00                	mov    (%eax),%eax
  102c63:	89 45 e0             	mov    %eax,-0x20(%ebp)
  102c66:	eb 2a                	jmp    102c92 <init+0x9a2>
		{
			vmmgr().map(addr, addr, vmm::present);
  102c68:	e8 b3 d3 ff ff       	call   100020 <_ZN6kernel5vmmgrEv>
  102c6d:	c7 44 24 0c 01 00 00 	movl   $0x1,0xc(%esp)
  102c74:	00 
  102c75:	8b 55 e0             	mov    -0x20(%ebp),%edx
  102c78:	89 54 24 08          	mov    %edx,0x8(%esp)
  102c7c:	8b 55 e0             	mov    -0x20(%ebp),%edx
  102c7f:	89 54 24 04          	mov    %edx,0x4(%esp)
  102c83:	89 04 24             	mov    %eax,(%esp)
  102c86:	e8 39 1d 00 00       	call   1049c4 <_ZN3hal3x863vmm3mapEjjj>

	multiboot::mods *mods = (multiboot::mods*)mbs->mods_addr;

	for(size_t index = 0; index < mbs->mods_count; index++)
	{
		for(uintptr_t addr = mods[index].mod_start; addr < mods[index].mod_end; addr += memory::page_size_byte)
  102c8b:	81 45 e0 00 10 00 00 	addl   $0x1000,-0x20(%ebp)
  102c92:	8b 45 e4             	mov    -0x1c(%ebp),%eax
  102c95:	c1 e0 04             	shl    $0x4,%eax
  102c98:	89 c2                	mov    %eax,%edx
  102c9a:	8b 45 c0             	mov    -0x40(%ebp),%eax
  102c9d:	01 d0                	add    %edx,%eax
  102c9f:	8b 40 04             	mov    0x4(%eax),%eax
  102ca2:	3b 45 e0             	cmp    -0x20(%ebp),%eax
  102ca5:	77 c1                	ja     102c68 <init+0x978>
	vmmgr().map(align4k((uintptr_t)mbs->boot_loader_name), align4k((uintptr_t)mbs->boot_loader_name), vmm::present);
	vmmgr().map(align4k((uintptr_t)mbs->mods_addr), align4k((uintptr_t)mbs->mods_addr), vmm::present, ((sizeof(multiboot::mods) * mbs->mods_count + 4095) / 4096));

	multiboot::mods *mods = (multiboot::mods*)mbs->mods_addr;

	for(size_t index = 0; index < mbs->mods_count; index++)
  102ca7:	83 45 e4 01          	addl   $0x1,-0x1c(%ebp)
  102cab:	8b 45 08             	mov    0x8(%ebp),%eax
  102cae:	8b 40 14             	mov    0x14(%eax),%eax
  102cb1:	3b 45 e4             	cmp    -0x1c(%ebp),%eax
  102cb4:	77 9e                	ja     102c54 <init+0x964>
	}

	/*
	Activate the kernel virtual-memory context
	*/
	kernel_context.activate();
  102cb6:	8d 85 78 ff ff ff    	lea    -0x88(%ebp),%eax
  102cbc:	89 04 24             	mov    %eax,(%esp)
  102cbf:	e8 5a 27 00 00       	call   10541e <_ZN3hal3x867context8activateEv>
	kernel::cntxt = &kernel_context;
  102cc4:	8d 85 78 ff ff ff    	lea    -0x88(%ebp),%eax
  102cca:	a3 04 30 11 00       	mov    %eax,0x113004
	Initialise the system-timer
	*/
	#if defined(ARCH_X86) || defined(ARCH_X64)

	time_t year, month, day, hour, min, sec;
	cmos::date(&year, &month, &day);
  102ccf:	8d 85 6c ff ff ff    	lea    -0x94(%ebp),%eax
  102cd5:	89 44 24 08          	mov    %eax,0x8(%esp)
  102cd9:	8d 85 70 ff ff ff    	lea    -0x90(%ebp),%eax
  102cdf:	89 44 24 04          	mov    %eax,0x4(%esp)
  102ce3:	8d 85 74 ff ff ff    	lea    -0x8c(%ebp),%eax
  102ce9:	89 04 24             	mov    %eax,(%esp)
  102cec:	e8 f2 23 00 00       	call   1050e3 <_ZN3hal3x864cmos4dateEPlS2_S2_>
	cmos::time(&hour, &min, &sec);
  102cf1:	8d 85 60 ff ff ff    	lea    -0xa0(%ebp),%eax
  102cf7:	89 44 24 08          	mov    %eax,0x8(%esp)
  102cfb:	8d 85 64 ff ff ff    	lea    -0x9c(%ebp),%eax
  102d01:	89 44 24 04          	mov    %eax,0x4(%esp)
  102d05:	8d 85 68 ff ff ff    	lea    -0x98(%ebp),%eax
  102d0b:	89 04 24             	mov    %eax,(%esp)
  102d0e:	e8 6b 23 00 00       	call   10507e <_ZN3hal3x864cmos4timeEPlS2_S2_>

	pit::init(pit::channel_0, pit::rate, 500);
  102d13:	c7 44 24 08 f4 01 00 	movl   $0x1f4,0x8(%esp)
  102d1a:	00 
  102d1b:	c7 44 24 04 02 00 00 	movl   $0x2,0x4(%esp)
  102d22:	00 
  102d23:	c7 04 24 00 00 00 00 	movl   $0x0,(%esp)
  102d2a:	e8 dc 0c 00 00       	call   103a0b <_ZN3hal3x863pit4initENS1_7channelENS1_4modeEl>

	timer::init(0, unixtime(year, month, day, hour, min, sec), 500);
  102d2f:	8b bd 60 ff ff ff    	mov    -0xa0(%ebp),%edi
  102d35:	8b b5 64 ff ff ff    	mov    -0x9c(%ebp),%esi
  102d3b:	8b 9d 68 ff ff ff    	mov    -0x98(%ebp),%ebx
  102d41:	8b 8d 6c ff ff ff    	mov    -0x94(%ebp),%ecx
  102d47:	8b 95 70 ff ff ff    	mov    -0x90(%ebp),%edx
  102d4d:	8b 85 74 ff ff ff    	mov    -0x8c(%ebp),%eax
  102d53:	89 7c 24 14          	mov    %edi,0x14(%esp)
  102d57:	89 74 24 10          	mov    %esi,0x10(%esp)
  102d5b:	89 5c 24 0c          	mov    %ebx,0xc(%esp)
  102d5f:	89 4c 24 08          	mov    %ecx,0x8(%esp)
  102d63:	89 54 24 04          	mov    %edx,0x4(%esp)
  102d67:	89 04 24             	mov    %eax,(%esp)
  102d6a:	e8 21 7d 00 00       	call   10aa90 <unixtime>
  102d6f:	c7 44 24 08 f4 01 00 	movl   $0x1f4,0x8(%esp)
  102d76:	00 
  102d77:	89 44 24 04          	mov    %eax,0x4(%esp)
  102d7b:	c7 04 24 00 00 00 00 	movl   $0x0,(%esp)
  102d82:	e8 f3 d2 ff ff       	call   10007a <_ZN6kernel5timer4initEhll>

	time_t time = timer::time;
  102d87:	a1 3c 30 13 00       	mov    0x13303c,%eax
  102d8c:	89 85 5c ff ff ff    	mov    %eax,-0xa4(%ebp)

	kout << output::endl << ctime(&time);
  102d92:	8d 85 5c ff ff ff    	lea    -0xa4(%ebp),%eax
  102d98:	89 04 24             	mov    %eax,(%esp)
  102d9b:	e8 e0 7e 00 00       	call   10ac80 <ctime>
  102da0:	89 c3                	mov    %eax,%ebx
  102da2:	c7 44 24 04 d1 cb 10 	movl   $0x10cbd1,0x4(%esp)
  102da9:	00 
  102daa:	c7 04 24 50 30 13 00 	movl   $0x133050,(%esp)
  102db1:	e8 08 9e 00 00       	call   10cbbe <_ZN6kernel6outputlsEPFRS0_S1_E>
  102db6:	89 5c 24 04          	mov    %ebx,0x4(%esp)
  102dba:	89 04 24             	mov    %eax,(%esp)
  102dbd:	e8 fc dc ff ff       	call   100abe <_ZN6kernel6outputlsEPKc>
	#endif

	/*
	Get an instance of the process an thread managers
	*/
	processmgr &procmgr   = processmgr::instance(); 
  102dc2:	e8 a0 97 00 00       	call   10c567 <_ZN6kernel10processmgr8instanceEv>
  102dc7:	89 45 bc             	mov    %eax,-0x44(%ebp)
	threadmgr  &thrdmgr   = threadmgr::instance(); 
  102dca:	e8 e4 97 00 00       	call   10c5b3 <_ZN6kernel9threadmgr8instanceEv>
  102dcf:	89 45 b8             	mov    %eax,-0x48(%ebp)
	scheduler  &scheduler = scheduler::instance();
  102dd2:	e8 66 91 00 00       	call   10bf3d <_ZN6kernel9scheduler8instanceEv>
  102dd7:	89 45 b4             	mov    %eax,-0x4c(%ebp)


	/*
	Spawn first process
	*/
	process *proc0 = new process("proc0", "", 0, &kernel_context);
  102dda:	c7 04 24 68 04 00 00 	movl   $0x468,(%esp)
  102de1:	e8 ba f3 ff ff       	call   1021a0 <_Znwj>
  102de6:	89 c3                	mov    %eax,%ebx
  102de8:	8d 85 78 ff ff ff    	lea    -0x88(%ebp),%eax
  102dee:	89 44 24 10          	mov    %eax,0x10(%esp)
  102df2:	c7 44 24 0c 00 00 00 	movl   $0x0,0xc(%esp)
  102df9:	00 
  102dfa:	c7 44 24 08 c6 e6 10 	movl   $0x10e6c6,0x8(%esp)
  102e01:	00 
  102e02:	c7 44 24 04 c7 e6 10 	movl   $0x10e6c7,0x4(%esp)
  102e09:	00 
  102e0a:	89 1c 24             	mov    %ebx,(%esp)
  102e0d:	e8 98 e6 ff ff       	call   1014aa <_ZN6kernel7processC1EPKcS2_jPN3hal3x867contextE>
  102e12:	89 5d b0             	mov    %ebx,-0x50(%ebp)

	procmgr.add(proc0);
  102e15:	8b 45 b0             	mov    -0x50(%ebp),%eax
  102e18:	89 44 24 04          	mov    %eax,0x4(%esp)
  102e1c:	8b 45 bc             	mov    -0x44(%ebp),%eax
  102e1f:	89 04 24             	mov    %eax,(%esp)
  102e22:	e8 d1 e8 ff ff       	call   1016f8 <_ZN6kernel10processmgr3addEPNS_7processE>

	thread *thrd00 = new thread(proc0, (uintptr_t)thread_entry, thread::kernel);
  102e27:	c7 04 24 1c 00 00 00 	movl   $0x1c,(%esp)
  102e2e:	e8 6d f3 ff ff       	call   1021a0 <_Znwj>
  102e33:	89 c3                	mov    %eax,%ebx
  102e35:	b8 38 22 10 00       	mov    $0x102238,%eax
  102e3a:	c7 44 24 0c 01 00 00 	movl   $0x1,0xc(%esp)
  102e41:	00 
  102e42:	89 44 24 08          	mov    %eax,0x8(%esp)
  102e46:	8b 45 b0             	mov    -0x50(%ebp),%eax
  102e49:	89 44 24 04          	mov    %eax,0x4(%esp)
  102e4d:	89 1c 24             	mov    %ebx,(%esp)
  102e50:	e8 f5 d2 ff ff       	call   10014a <_ZN6kernel6threadC1EPNS_7processEjj>
  102e55:	89 5d ac             	mov    %ebx,-0x54(%ebp)
	thread *thrd01 = new thread(proc0, (uintptr_t)thread_entry, thread::kernel);
  102e58:	c7 04 24 1c 00 00 00 	movl   $0x1c,(%esp)
  102e5f:	e8 3c f3 ff ff       	call   1021a0 <_Znwj>
  102e64:	89 c3                	mov    %eax,%ebx
  102e66:	b8 38 22 10 00       	mov    $0x102238,%eax
  102e6b:	c7 44 24 0c 01 00 00 	movl   $0x1,0xc(%esp)
  102e72:	00 
  102e73:	89 44 24 08          	mov    %eax,0x8(%esp)
  102e77:	8b 45 b0             	mov    -0x50(%ebp),%eax
  102e7a:	89 44 24 04          	mov    %eax,0x4(%esp)
  102e7e:	89 1c 24             	mov    %ebx,(%esp)
  102e81:	e8 c4 d2 ff ff       	call   10014a <_ZN6kernel6threadC1EPNS_7processEjj>
  102e86:	89 5d a8             	mov    %ebx,-0x58(%ebp)
	thread *thrd02 = new thread(proc0, (uintptr_t)thread_entry, thread::kernel);
  102e89:	c7 04 24 1c 00 00 00 	movl   $0x1c,(%esp)
  102e90:	e8 0b f3 ff ff       	call   1021a0 <_Znwj>
  102e95:	89 c3                	mov    %eax,%ebx
  102e97:	b8 38 22 10 00       	mov    $0x102238,%eax
  102e9c:	c7 44 24 0c 01 00 00 	movl   $0x1,0xc(%esp)
  102ea3:	00 
  102ea4:	89 44 24 08          	mov    %eax,0x8(%esp)
  102ea8:	8b 45 b0             	mov    -0x50(%ebp),%eax
  102eab:	89 44 24 04          	mov    %eax,0x4(%esp)
  102eaf:	89 1c 24             	mov    %ebx,(%esp)
  102eb2:	e8 93 d2 ff ff       	call   10014a <_ZN6kernel6threadC1EPNS_7processEjj>
  102eb7:	89 5d a4             	mov    %ebx,-0x5c(%ebp)
	thread *thrd03 = new thread(proc0, (uintptr_t)thread_entry, thread::kernel);
  102eba:	c7 04 24 1c 00 00 00 	movl   $0x1c,(%esp)
  102ec1:	e8 da f2 ff ff       	call   1021a0 <_Znwj>
  102ec6:	89 c3                	mov    %eax,%ebx
  102ec8:	b8 38 22 10 00       	mov    $0x102238,%eax
  102ecd:	c7 44 24 0c 01 00 00 	movl   $0x1,0xc(%esp)
  102ed4:	00 
  102ed5:	89 44 24 08          	mov    %eax,0x8(%esp)
  102ed9:	8b 45 b0             	mov    -0x50(%ebp),%eax
  102edc:	89 44 24 04          	mov    %eax,0x4(%esp)
  102ee0:	89 1c 24             	mov    %ebx,(%esp)
  102ee3:	e8 62 d2 ff ff       	call   10014a <_ZN6kernel6threadC1EPNS_7processEjj>
  102ee8:	89 5d a0             	mov    %ebx,-0x60(%ebp)
	thread *thrd04 = new thread(proc0, (uintptr_t)thread_entry, thread::kernel);
  102eeb:	c7 04 24 1c 00 00 00 	movl   $0x1c,(%esp)
  102ef2:	e8 a9 f2 ff ff       	call   1021a0 <_Znwj>
  102ef7:	89 c3                	mov    %eax,%ebx
  102ef9:	b8 38 22 10 00       	mov    $0x102238,%eax
  102efe:	c7 44 24 0c 01 00 00 	movl   $0x1,0xc(%esp)
  102f05:	00 
  102f06:	89 44 24 08          	mov    %eax,0x8(%esp)
  102f0a:	8b 45 b0             	mov    -0x50(%ebp),%eax
  102f0d:	89 44 24 04          	mov    %eax,0x4(%esp)
  102f11:	89 1c 24             	mov    %ebx,(%esp)
  102f14:	e8 31 d2 ff ff       	call   10014a <_ZN6kernel6threadC1EPNS_7processEjj>
  102f19:	89 5d 9c             	mov    %ebx,-0x64(%ebp)

	scheduler.add(thrd00);
  102f1c:	8b 45 ac             	mov    -0x54(%ebp),%eax
  102f1f:	89 44 24 04          	mov    %eax,0x4(%esp)
  102f23:	8b 45 b4             	mov    -0x4c(%ebp),%eax
  102f26:	89 04 24             	mov    %eax,(%esp)
  102f29:	e8 1c e3 ff ff       	call   10124a <_ZN6kernel9scheduler3addEPNS_6threadE>
	scheduler.add(thrd01);
  102f2e:	8b 45 a8             	mov    -0x58(%ebp),%eax
  102f31:	89 44 24 04          	mov    %eax,0x4(%esp)
  102f35:	8b 45 b4             	mov    -0x4c(%ebp),%eax
  102f38:	89 04 24             	mov    %eax,(%esp)
  102f3b:	e8 0a e3 ff ff       	call   10124a <_ZN6kernel9scheduler3addEPNS_6threadE>
	scheduler.add(thrd02);
  102f40:	8b 45 a4             	mov    -0x5c(%ebp),%eax
  102f43:	89 44 24 04          	mov    %eax,0x4(%esp)
  102f47:	8b 45 b4             	mov    -0x4c(%ebp),%eax
  102f4a:	89 04 24             	mov    %eax,(%esp)
  102f4d:	e8 f8 e2 ff ff       	call   10124a <_ZN6kernel9scheduler3addEPNS_6threadE>
	scheduler.add(thrd03);
  102f52:	8b 45 a0             	mov    -0x60(%ebp),%eax
  102f55:	89 44 24 04          	mov    %eax,0x4(%esp)
  102f59:	8b 45 b4             	mov    -0x4c(%ebp),%eax
  102f5c:	89 04 24             	mov    %eax,(%esp)
  102f5f:	e8 e6 e2 ff ff       	call   10124a <_ZN6kernel9scheduler3addEPNS_6threadE>
	scheduler.add(thrd04);
  102f64:	8b 45 9c             	mov    -0x64(%ebp),%eax
  102f67:	89 44 24 04          	mov    %eax,0x4(%esp)
  102f6b:	8b 45 b4             	mov    -0x4c(%ebp),%eax
  102f6e:	89 04 24             	mov    %eax,(%esp)
  102f71:	e8 d4 e2 ff ff       	call   10124a <_ZN6kernel9scheduler3addEPNS_6threadE>

	thrdmgr.add(thrd00);
  102f76:	8b 45 ac             	mov    -0x54(%ebp),%eax
  102f79:	89 44 24 04          	mov    %eax,0x4(%esp)
  102f7d:	8b 45 b8             	mov    -0x48(%ebp),%eax
  102f80:	89 04 24             	mov    %eax,(%esp)
  102f83:	e8 6c d4 ff ff       	call   1003f4 <_ZN6kernel9threadmgr3addEPNS_6threadE>
	thrdmgr.add(thrd01);
  102f88:	8b 45 a8             	mov    -0x58(%ebp),%eax
  102f8b:	89 44 24 04          	mov    %eax,0x4(%esp)
  102f8f:	8b 45 b8             	mov    -0x48(%ebp),%eax
  102f92:	89 04 24             	mov    %eax,(%esp)
  102f95:	e8 5a d4 ff ff       	call   1003f4 <_ZN6kernel9threadmgr3addEPNS_6threadE>
	thrdmgr.add(thrd02);
  102f9a:	8b 45 a4             	mov    -0x5c(%ebp),%eax
  102f9d:	89 44 24 04          	mov    %eax,0x4(%esp)
  102fa1:	8b 45 b8             	mov    -0x48(%ebp),%eax
  102fa4:	89 04 24             	mov    %eax,(%esp)
  102fa7:	e8 48 d4 ff ff       	call   1003f4 <_ZN6kernel9threadmgr3addEPNS_6threadE>
	thrdmgr.add(thrd03);
  102fac:	8b 45 a0             	mov    -0x60(%ebp),%eax
  102faf:	89 44 24 04          	mov    %eax,0x4(%esp)
  102fb3:	8b 45 b8             	mov    -0x48(%ebp),%eax
  102fb6:	89 04 24             	mov    %eax,(%esp)
  102fb9:	e8 36 d4 ff ff       	call   1003f4 <_ZN6kernel9threadmgr3addEPNS_6threadE>
	thrdmgr.add(thrd04);
  102fbe:	8b 45 9c             	mov    -0x64(%ebp),%eax
  102fc1:	89 44 24 04          	mov    %eax,0x4(%esp)
  102fc5:	8b 45 b8             	mov    -0x48(%ebp),%eax
  102fc8:	89 04 24             	mov    %eax,(%esp)
  102fcb:	e8 24 d4 ff ff       	call   1003f4 <_ZN6kernel9threadmgr3addEPNS_6threadE>
	

	/*
	Spawn new process
	*/
	process *proc1 = new process("proc1", "", 0, &kernel_context);
  102fd0:	c7 04 24 68 04 00 00 	movl   $0x468,(%esp)
  102fd7:	e8 c4 f1 ff ff       	call   1021a0 <_Znwj>
  102fdc:	89 c3                	mov    %eax,%ebx
  102fde:	8d 85 78 ff ff ff    	lea    -0x88(%ebp),%eax
  102fe4:	89 44 24 10          	mov    %eax,0x10(%esp)
  102fe8:	c7 44 24 0c 00 00 00 	movl   $0x0,0xc(%esp)
  102fef:	00 
  102ff0:	c7 44 24 08 c6 e6 10 	movl   $0x10e6c6,0x8(%esp)
  102ff7:	00 
  102ff8:	c7 44 24 04 cd e6 10 	movl   $0x10e6cd,0x4(%esp)
  102fff:	00 
  103000:	89 1c 24             	mov    %ebx,(%esp)
  103003:	e8 a2 e4 ff ff       	call   1014aa <_ZN6kernel7processC1EPKcS2_jPN3hal3x867contextE>
  103008:	89 5d 98             	mov    %ebx,-0x68(%ebp)

	procmgr.add(proc1);
  10300b:	8b 45 98             	mov    -0x68(%ebp),%eax
  10300e:	89 44 24 04          	mov    %eax,0x4(%esp)
  103012:	8b 45 bc             	mov    -0x44(%ebp),%eax
  103015:	89 04 24             	mov    %eax,(%esp)
  103018:	e8 db e6 ff ff       	call   1016f8 <_ZN6kernel10processmgr3addEPNS_7processE>

	thread *thrd10 = new thread(proc1, (uintptr_t)thread_entry, thread::kernel);
  10301d:	c7 04 24 1c 00 00 00 	movl   $0x1c,(%esp)
  103024:	e8 77 f1 ff ff       	call   1021a0 <_Znwj>
  103029:	89 c3                	mov    %eax,%ebx
  10302b:	b8 38 22 10 00       	mov    $0x102238,%eax
  103030:	c7 44 24 0c 01 00 00 	movl   $0x1,0xc(%esp)
  103037:	00 
  103038:	89 44 24 08          	mov    %eax,0x8(%esp)
  10303c:	8b 45 98             	mov    -0x68(%ebp),%eax
  10303f:	89 44 24 04          	mov    %eax,0x4(%esp)
  103043:	89 1c 24             	mov    %ebx,(%esp)
  103046:	e8 ff d0 ff ff       	call   10014a <_ZN6kernel6threadC1EPNS_7processEjj>
  10304b:	89 5d 94             	mov    %ebx,-0x6c(%ebp)
	thread *thrd11 = new thread(proc1, (uintptr_t)thread_entry, thread::kernel);
  10304e:	c7 04 24 1c 00 00 00 	movl   $0x1c,(%esp)
  103055:	e8 46 f1 ff ff       	call   1021a0 <_Znwj>
  10305a:	89 c3                	mov    %eax,%ebx
  10305c:	b8 38 22 10 00       	mov    $0x102238,%eax
  103061:	c7 44 24 0c 01 00 00 	movl   $0x1,0xc(%esp)
  103068:	00 
  103069:	89 44 24 08          	mov    %eax,0x8(%esp)
  10306d:	8b 45 98             	mov    -0x68(%ebp),%eax
  103070:	89 44 24 04          	mov    %eax,0x4(%esp)
  103074:	89 1c 24             	mov    %ebx,(%esp)
  103077:	e8 ce d0 ff ff       	call   10014a <_ZN6kernel6threadC1EPNS_7processEjj>
  10307c:	89 5d 90             	mov    %ebx,-0x70(%ebp)
	thread *thrd12 = new thread(proc1, (uintptr_t)thread_entry, thread::kernel);
  10307f:	c7 04 24 1c 00 00 00 	movl   $0x1c,(%esp)
  103086:	e8 15 f1 ff ff       	call   1021a0 <_Znwj>
  10308b:	89 c3                	mov    %eax,%ebx
  10308d:	b8 38 22 10 00       	mov    $0x102238,%eax
  103092:	c7 44 24 0c 01 00 00 	movl   $0x1,0xc(%esp)
  103099:	00 
  10309a:	89 44 24 08          	mov    %eax,0x8(%esp)
  10309e:	8b 45 98             	mov    -0x68(%ebp),%eax
  1030a1:	89 44 24 04          	mov    %eax,0x4(%esp)
  1030a5:	89 1c 24             	mov    %ebx,(%esp)
  1030a8:	e8 9d d0 ff ff       	call   10014a <_ZN6kernel6threadC1EPNS_7processEjj>
  1030ad:	89 5d 8c             	mov    %ebx,-0x74(%ebp)
	thread *thrd13 = new thread(proc1, (uintptr_t)thread_entry, thread::kernel);
  1030b0:	c7 04 24 1c 00 00 00 	movl   $0x1c,(%esp)
  1030b7:	e8 e4 f0 ff ff       	call   1021a0 <_Znwj>
  1030bc:	89 c3                	mov    %eax,%ebx
  1030be:	b8 38 22 10 00       	mov    $0x102238,%eax
  1030c3:	c7 44 24 0c 01 00 00 	movl   $0x1,0xc(%esp)
  1030ca:	00 
  1030cb:	89 44 24 08          	mov    %eax,0x8(%esp)
  1030cf:	8b 45 98             	mov    -0x68(%ebp),%eax
  1030d2:	89 44 24 04          	mov    %eax,0x4(%esp)
  1030d6:	89 1c 24             	mov    %ebx,(%esp)
  1030d9:	e8 6c d0 ff ff       	call   10014a <_ZN6kernel6threadC1EPNS_7processEjj>
  1030de:	89 5d 88             	mov    %ebx,-0x78(%ebp)
	thread *thrd14 = new thread(proc1, (uintptr_t)thread_entry, thread::kernel);
  1030e1:	c7 04 24 1c 00 00 00 	movl   $0x1c,(%esp)
  1030e8:	e8 b3 f0 ff ff       	call   1021a0 <_Znwj>
  1030ed:	89 c3                	mov    %eax,%ebx
  1030ef:	b8 38 22 10 00       	mov    $0x102238,%eax
  1030f4:	c7 44 24 0c 01 00 00 	movl   $0x1,0xc(%esp)
  1030fb:	00 
  1030fc:	89 44 24 08          	mov    %eax,0x8(%esp)
  103100:	8b 45 98             	mov    -0x68(%ebp),%eax
  103103:	89 44 24 04          	mov    %eax,0x4(%esp)
  103107:	89 1c 24             	mov    %ebx,(%esp)
  10310a:	e8 3b d0 ff ff       	call   10014a <_ZN6kernel6threadC1EPNS_7processEjj>
  10310f:	89 5d 84             	mov    %ebx,-0x7c(%ebp)

	scheduler.add(thrd10);
  103112:	8b 45 94             	mov    -0x6c(%ebp),%eax
  103115:	89 44 24 04          	mov    %eax,0x4(%esp)
  103119:	8b 45 b4             	mov    -0x4c(%ebp),%eax
  10311c:	89 04 24             	mov    %eax,(%esp)
  10311f:	e8 26 e1 ff ff       	call   10124a <_ZN6kernel9scheduler3addEPNS_6threadE>
	scheduler.add(thrd11);
  103124:	8b 45 90             	mov    -0x70(%ebp),%eax
  103127:	89 44 24 04          	mov    %eax,0x4(%esp)
  10312b:	8b 45 b4             	mov    -0x4c(%ebp),%eax
  10312e:	89 04 24             	mov    %eax,(%esp)
  103131:	e8 14 e1 ff ff       	call   10124a <_ZN6kernel9scheduler3addEPNS_6threadE>
	scheduler.add(thrd12);
  103136:	8b 45 8c             	mov    -0x74(%ebp),%eax
  103139:	89 44 24 04          	mov    %eax,0x4(%esp)
  10313d:	8b 45 b4             	mov    -0x4c(%ebp),%eax
  103140:	89 04 24             	mov    %eax,(%esp)
  103143:	e8 02 e1 ff ff       	call   10124a <_ZN6kernel9scheduler3addEPNS_6threadE>
	scheduler.add(thrd13);
  103148:	8b 45 88             	mov    -0x78(%ebp),%eax
  10314b:	89 44 24 04          	mov    %eax,0x4(%esp)
  10314f:	8b 45 b4             	mov    -0x4c(%ebp),%eax
  103152:	89 04 24             	mov    %eax,(%esp)
  103155:	e8 f0 e0 ff ff       	call   10124a <_ZN6kernel9scheduler3addEPNS_6threadE>
	scheduler.add(thrd14);
  10315a:	8b 45 84             	mov    -0x7c(%ebp),%eax
  10315d:	89 44 24 04          	mov    %eax,0x4(%esp)
  103161:	8b 45 b4             	mov    -0x4c(%ebp),%eax
  103164:	89 04 24             	mov    %eax,(%esp)
  103167:	e8 de e0 ff ff       	call   10124a <_ZN6kernel9scheduler3addEPNS_6threadE>

	thrdmgr.add(thrd10);
  10316c:	8b 45 94             	mov    -0x6c(%ebp),%eax
  10316f:	89 44 24 04          	mov    %eax,0x4(%esp)
  103173:	8b 45 b8             	mov    -0x48(%ebp),%eax
  103176:	89 04 24             	mov    %eax,(%esp)
  103179:	e8 76 d2 ff ff       	call   1003f4 <_ZN6kernel9threadmgr3addEPNS_6threadE>
	thrdmgr.add(thrd11);
  10317e:	8b 45 90             	mov    -0x70(%ebp),%eax
  103181:	89 44 24 04          	mov    %eax,0x4(%esp)
  103185:	8b 45 b8             	mov    -0x48(%ebp),%eax
  103188:	89 04 24             	mov    %eax,(%esp)
  10318b:	e8 64 d2 ff ff       	call   1003f4 <_ZN6kernel9threadmgr3addEPNS_6threadE>
	thrdmgr.add(thrd12);
  103190:	8b 45 8c             	mov    -0x74(%ebp),%eax
  103193:	89 44 24 04          	mov    %eax,0x4(%esp)
  103197:	8b 45 b8             	mov    -0x48(%ebp),%eax
  10319a:	89 04 24             	mov    %eax,(%esp)
  10319d:	e8 52 d2 ff ff       	call   1003f4 <_ZN6kernel9threadmgr3addEPNS_6threadE>
	thrdmgr.add(thrd13);
  1031a2:	8b 45 88             	mov    -0x78(%ebp),%eax
  1031a5:	89 44 24 04          	mov    %eax,0x4(%esp)
  1031a9:	8b 45 b8             	mov    -0x48(%ebp),%eax
  1031ac:	89 04 24             	mov    %eax,(%esp)
  1031af:	e8 40 d2 ff ff       	call   1003f4 <_ZN6kernel9threadmgr3addEPNS_6threadE>
	thrdmgr.add(thrd14);
  1031b4:	8b 45 84             	mov    -0x7c(%ebp),%eax
  1031b7:	89 44 24 04          	mov    %eax,0x4(%esp)
  1031bb:	8b 45 b8             	mov    -0x48(%ebp),%eax
  1031be:	89 04 24             	mov    %eax,(%esp)
  1031c1:	e8 2e d2 ff ff       	call   1003f4 <_ZN6kernel9threadmgr3addEPNS_6threadE>

	/*
	Initialise the syscall interface
	*/
	intr::handler(0xFF, []( cpu::cpu_state *cpu ) { return syscall::handle(cpu); });
  1031c6:	8d 85 7e ff ff ff    	lea    -0x82(%ebp),%eax
  1031cc:	89 04 24             	mov    %eax,(%esp)
  1031cf:	e8 ca f0 ff ff       	call   10229e <_ZZ4initENKUlPN3hal3x863cpu9cpu_stateEE_cvPFS3_S3_EEv>
  1031d4:	89 44 24 04          	mov    %eax,0x4(%esp)
  1031d8:	c7 04 24 ff 00 00 00 	movl   $0xff,(%esp)
  1031df:	e8 07 09 00 00       	call   103aeb <_ZN3hal3x864intr7handlerEjPFPNS0_3cpu9cpu_stateES4_E>
	intr::handler(0xEE, []( cpu::cpu_state *cpu ) { kernel::scheduler &sched = kernel::scheduler::instance(); return sched.schedule(cpu); });
  1031e4:	8d 85 7f ff ff ff    	lea    -0x81(%ebp),%eax
  1031ea:	89 04 24             	mov    %eax,(%esp)
  1031ed:	e8 f4 f0 ff ff       	call   1022e6 <_ZZ4initENKUlPN3hal3x863cpu9cpu_stateEE0_cvPFS3_S3_EEv>
  1031f2:	89 44 24 04          	mov    %eax,0x4(%esp)
  1031f6:	c7 04 24 ee 00 00 00 	movl   $0xee,(%esp)
  1031fd:	e8 e9 08 00 00       	call   103aeb <_ZN3hal3x864intr7handlerEjPFPNS0_3cpu9cpu_stateES4_E>

	

	tar *initrd = new tar(mods[0].mod_start);
  103202:	c7 04 24 0c 00 00 00 	movl   $0xc,(%esp)
  103209:	e8 92 ef ff ff       	call   1021a0 <_Znwj>
  10320e:	89 c3                	mov    %eax,%ebx
  103210:	8b 45 c0             	mov    -0x40(%ebp),%eax
  103213:	8b 00                	mov    (%eax),%eax
  103215:	89 44 24 04          	mov    %eax,0x4(%esp)
  103219:	89 1c 24             	mov    %ebx,(%esp)
  10321c:	e8 9d ed ff ff       	call   101fbe <_ZN6kernel3tarC1Ej>
  103221:	89 5d 80             	mov    %ebx,-0x80(%ebp)

	char buffer[512];

	initrd->read("file.txt", buffer, 512);
  103224:	c7 44 24 0c 00 02 00 	movl   $0x200,0xc(%esp)
  10322b:	00 
  10322c:	8d 85 5c fd ff ff    	lea    -0x2a4(%ebp),%eax
  103232:	89 44 24 08          	mov    %eax,0x8(%esp)
  103236:	c7 44 24 04 d3 e6 10 	movl   $0x10e6d3,0x4(%esp)
  10323d:	00 
  10323e:	8b 45 80             	mov    -0x80(%ebp),%eax
  103241:	89 04 24             	mov    %eax,(%esp)
  103244:	e8 53 ee ff ff       	call   10209c <_ZN6kernel3tar4readEPKcPcj>

	kout << buffer << output::endl;
  103249:	8d 85 5c fd ff ff    	lea    -0x2a4(%ebp),%eax
  10324f:	89 44 24 04          	mov    %eax,0x4(%esp)
  103253:	c7 04 24 50 30 13 00 	movl   $0x133050,(%esp)
  10325a:	e8 5f d8 ff ff       	call   100abe <_ZN6kernel6outputlsEPKc>
  10325f:	c7 44 24 04 d1 cb 10 	movl   $0x10cbd1,0x4(%esp)
  103266:	00 
  103267:	89 04 24             	mov    %eax,(%esp)
  10326a:	e8 4f 99 00 00       	call   10cbbe <_ZN6kernel6outputlsEPFRS0_S1_E>

	delete initrd;
  10326f:	8b 45 80             	mov    -0x80(%ebp),%eax
  103272:	89 04 24             	mov    %eax,(%esp)
  103275:	e8 5c ef ff ff       	call   1021d6 <_ZdlPv>

	/*
	Enable interrupts; give control to threads
	*/
	intr::enable();
  10327a:	e8 cf 99 00 00       	call   10cc4e <_ZN3hal3x864intr6enableEv>
  10327f:	eb fe                	jmp    10327f <init+0xf8f>

00103281 <_ZN5tools4stoiEPKcj>:
#include "include/number.hpp"

int tools::stoi( const char *str, unsigned int base )
{
  103281:	55                   	push   %ebp
  103282:	89 e5                	mov    %esp,%ebp
  103284:	83 ec 10             	sub    $0x10,%esp
	int number = 0;
  103287:	c7 45 fc 00 00 00 00 	movl   $0x0,-0x4(%ebp)
	
	int sign = 1;
  10328e:	c7 45 f8 01 00 00 00 	movl   $0x1,-0x8(%ebp)
	
	while( *str == ' ' || *str == '\t' || *str == '\r' || *str == '\n' || *str == '\v' )
  103295:	eb 04                	jmp    10329b <_ZN5tools4stoiEPKcj+0x1a>
	{
		str++;
  103297:	83 45 08 01          	addl   $0x1,0x8(%ebp)
{
	int number = 0;
	
	int sign = 1;
	
	while( *str == ' ' || *str == '\t' || *str == '\r' || *str == '\n' || *str == '\v' )
  10329b:	8b 45 08             	mov    0x8(%ebp),%eax
  10329e:	0f b6 00             	movzbl (%eax),%eax
  1032a1:	3c 20                	cmp    $0x20,%al
  1032a3:	74 f2                	je     103297 <_ZN5tools4stoiEPKcj+0x16>
  1032a5:	8b 45 08             	mov    0x8(%ebp),%eax
  1032a8:	0f b6 00             	movzbl (%eax),%eax
  1032ab:	3c 09                	cmp    $0x9,%al
  1032ad:	74 e8                	je     103297 <_ZN5tools4stoiEPKcj+0x16>
  1032af:	8b 45 08             	mov    0x8(%ebp),%eax
  1032b2:	0f b6 00             	movzbl (%eax),%eax
  1032b5:	3c 0d                	cmp    $0xd,%al
  1032b7:	74 de                	je     103297 <_ZN5tools4stoiEPKcj+0x16>
  1032b9:	8b 45 08             	mov    0x8(%ebp),%eax
  1032bc:	0f b6 00             	movzbl (%eax),%eax
  1032bf:	3c 0a                	cmp    $0xa,%al
  1032c1:	74 d4                	je     103297 <_ZN5tools4stoiEPKcj+0x16>
  1032c3:	8b 45 08             	mov    0x8(%ebp),%eax
  1032c6:	0f b6 00             	movzbl (%eax),%eax
  1032c9:	3c 0b                	cmp    $0xb,%al
  1032cb:	74 ca                	je     103297 <_ZN5tools4stoiEPKcj+0x16>
	{
		str++;
	}

	if(*str == '-')
  1032cd:	8b 45 08             	mov    0x8(%ebp),%eax
  1032d0:	0f b6 00             	movzbl (%eax),%eax
  1032d3:	3c 2d                	cmp    $0x2d,%al
  1032d5:	75 0b                	jne    1032e2 <_ZN5tools4stoiEPKcj+0x61>
	{
		sign = -1;
  1032d7:	c7 45 f8 ff ff ff ff 	movl   $0xffffffff,-0x8(%ebp)

		str++;
  1032de:	83 45 08 01          	addl   $0x1,0x8(%ebp)
	}

	while(*str != '\0')
  1032e2:	e9 ac 00 00 00       	jmp    103393 <_ZN5tools4stoiEPKcj+0x112>
	{
		unsigned char digit = *str;
  1032e7:	8b 45 08             	mov    0x8(%ebp),%eax
  1032ea:	0f b6 00             	movzbl (%eax),%eax
  1032ed:	88 45 f7             	mov    %al,-0x9(%ebp)

